
Discarded input sections

 .note.GNU-stack
                0x0000000000000000        0x0 /usr/lib/gcc/x86_64-redhat-linux/4.4.7/../../../../lib64/crti.o
 .note.GNU-stack
                0x0000000000000000        0x0 /usr/lib/gcc/x86_64-redhat-linux/4.4.7/crtbeginS.o
 .group         0x0000000000000000        0x8 LINUX/depdom/AttrImpl.o
 _ZN11xercesc_2_710XMLDeleterD5Ev
                0x0000000000000000        0xc LINUX/depdom/AttrImpl.o
 .group         0x0000000000000000        0x8 LINUX/depdom/AttrImpl.o
 .group         0x0000000000000000        0x8 LINUX/depdom/AttrImpl.o
 _ZN11xercesc_2_730ArrayIndexOutOfBoundsExceptionD5Ev
                0x0000000000000000        0xc LINUX/depdom/AttrImpl.o
 .group         0x0000000000000000        0x8 LINUX/depdom/AttrImpl.o
 .group         0x0000000000000000        0x8 LINUX/depdom/AttrImpl.o
 .group         0x0000000000000000        0x8 LINUX/depdom/AttrImpl.o
 .group         0x0000000000000000        0x8 LINUX/depdom/AttrImpl.o
 .group         0x0000000000000000        0x8 LINUX/depdom/AttrImpl.o
 .group         0x0000000000000000        0x8 LINUX/depdom/AttrImpl.o
 .group         0x0000000000000000        0x8 LINUX/depdom/AttrImpl.o
 .group         0x0000000000000000        0x8 LINUX/depdom/AttrImpl.o
 .group         0x0000000000000000        0x8 LINUX/depdom/AttrImpl.o
 .group         0x0000000000000000        0x8 LINUX/depdom/AttrImpl.o
 .group         0x0000000000000000        0x8 LINUX/depdom/AttrImpl.o
 .note.GNU-stack
                0x0000000000000000        0x0 LINUX/depdom/AttrImpl.o
 .group         0x0000000000000000        0x8 LINUX/depdom/AttrMapImpl.o
 .group         0x0000000000000000        0x8 LINUX/depdom/AttrMapImpl.o
 _ZN11xercesc_2_710XMLDeleterD5Ev
                0x0000000000000000        0xc LINUX/depdom/AttrMapImpl.o
 .group         0x0000000000000000        0x8 LINUX/depdom/AttrMapImpl.o
 .group         0x0000000000000000        0x8 LINUX/depdom/AttrMapImpl.o
 .group         0x0000000000000000        0x8 LINUX/depdom/AttrMapImpl.o
 .group         0x0000000000000000        0x8 LINUX/depdom/AttrMapImpl.o
 .group         0x0000000000000000        0x8 LINUX/depdom/AttrMapImpl.o
 .group         0x0000000000000000        0x8 LINUX/depdom/AttrMapImpl.o
 .group         0x0000000000000000        0x8 LINUX/depdom/AttrMapImpl.o
 .text._ZN11xercesc_2_710XMLDeleterD2Ev
                0x0000000000000000        0xf LINUX/depdom/AttrMapImpl.o
 .text._ZN11xercesc_2_710XMLDeleterD0Ev
                0x0000000000000000       0x1c LINUX/depdom/AttrMapImpl.o
 .data.rel.ro._ZTVN11xercesc_2_710XMLDeleterE
                0x0000000000000000       0x20 LINUX/depdom/AttrMapImpl.o
 .rodata._ZTSN11xercesc_2_710XMLDeleterE
                0x0000000000000000       0x1c LINUX/depdom/AttrMapImpl.o
 .data.rel.ro._ZTIN11xercesc_2_710XMLDeleterE
                0x0000000000000000       0x10 LINUX/depdom/AttrMapImpl.o
 .data.DW.ref.__gxx_personality_v0
                0x0000000000000000        0x8 LINUX/depdom/AttrMapImpl.o
 .note.GNU-stack
                0x0000000000000000        0x0 LINUX/depdom/AttrMapImpl.o
 _ZN11xercesc_2_710XMLDeleterD5Ev
                0x0000000000000000        0xc LINUX/depdom/AttrNSImpl.o
 _ZN11xercesc_2_710AttrNSImplD5Ev
                0x0000000000000000        0xc LINUX/depdom/AttrNSImpl.o
 .group         0x0000000000000000        0x8 LINUX/depdom/AttrNSImpl.o
 .group         0x0000000000000000        0x8 LINUX/depdom/AttrNSImpl.o
 .group         0x0000000000000000        0x8 LINUX/depdom/AttrNSImpl.o
 .group         0x0000000000000000        0x8 LINUX/depdom/AttrNSImpl.o
 .group         0x0000000000000000        0x8 LINUX/depdom/AttrNSImpl.o
 .group         0x0000000000000000        0x8 LINUX/depdom/AttrNSImpl.o
 .group         0x0000000000000000        0x8 LINUX/depdom/AttrNSImpl.o
 .text._ZN11xercesc_2_710XMLDeleterD2Ev
                0x0000000000000000        0xf LINUX/depdom/AttrNSImpl.o
 .text._ZN11xercesc_2_710XMLDeleterD0Ev
                0x0000000000000000       0x1c LINUX/depdom/AttrNSImpl.o
 .data.rel.ro._ZTVN11xercesc_2_710XMLDeleterE
                0x0000000000000000       0x20 LINUX/depdom/AttrNSImpl.o
 .rodata._ZTSN11xercesc_2_710XMLDeleterE
                0x0000000000000000       0x1c LINUX/depdom/AttrNSImpl.o
 .data.rel.ro._ZTIN11xercesc_2_710XMLDeleterE
                0x0000000000000000       0x10 LINUX/depdom/AttrNSImpl.o
 .data.DW.ref.__gxx_personality_v0
                0x0000000000000000        0x8 LINUX/depdom/AttrNSImpl.o
 .note.GNU-stack
                0x0000000000000000        0x0 LINUX/depdom/AttrNSImpl.o
 _ZN11xercesc_2_710XMLDeleterD5Ev
                0x0000000000000000        0xc LINUX/depdom/CDATASectionImpl.o
 .group         0x0000000000000000        0x8 LINUX/depdom/CDATASectionImpl.o
 .group         0x0000000000000000        0x8 LINUX/depdom/CDATASectionImpl.o
 .group         0x0000000000000000        0x8 LINUX/depdom/CDATASectionImpl.o
 .group         0x0000000000000000        0x8 LINUX/depdom/CDATASectionImpl.o
 .group         0x0000000000000000        0x8 LINUX/depdom/CDATASectionImpl.o
 .group         0x0000000000000000        0x8 LINUX/depdom/CDATASectionImpl.o
 .group         0x0000000000000000        0x8 LINUX/depdom/CDATASectionImpl.o
 .text._ZN11xercesc_2_710XMLDeleterD2Ev
                0x0000000000000000        0xf LINUX/depdom/CDATASectionImpl.o
 .text._ZN11xercesc_2_710XMLDeleterD0Ev
                0x0000000000000000       0x1c LINUX/depdom/CDATASectionImpl.o
 .data.rel.ro._ZTVN11xercesc_2_710XMLDeleterE
                0x0000000000000000       0x20 LINUX/depdom/CDATASectionImpl.o
 .rodata._ZTSN11xercesc_2_710XMLDeleterE
                0x0000000000000000       0x1c LINUX/depdom/CDATASectionImpl.o
 .data.rel.ro._ZTIN11xercesc_2_710XMLDeleterE
                0x0000000000000000       0x10 LINUX/depdom/CDATASectionImpl.o
 .data.DW.ref.__gxx_personality_v0
                0x0000000000000000        0x8 LINUX/depdom/CDATASectionImpl.o
 .note.GNU-stack
                0x0000000000000000        0x0 LINUX/depdom/CDATASectionImpl.o
 _ZN11xercesc_2_710XMLDeleterD5Ev
                0x0000000000000000        0xc LINUX/depdom/CharacterDataImpl.o
 .group         0x0000000000000000        0x8 LINUX/depdom/CharacterDataImpl.o
 .group         0x0000000000000000        0x8 LINUX/depdom/CharacterDataImpl.o
 .group         0x0000000000000000        0x8 LINUX/depdom/CharacterDataImpl.o
 _ZN11xercesc_2_730ArrayIndexOutOfBoundsExceptionD5Ev
                0x0000000000000000        0xc LINUX/depdom/CharacterDataImpl.o
 .group         0x0000000000000000        0x8 LINUX/depdom/CharacterDataImpl.o
 .group         0x0000000000000000        0x8 LINUX/depdom/CharacterDataImpl.o
 .group         0x0000000000000000        0x8 LINUX/depdom/CharacterDataImpl.o
 .group         0x0000000000000000        0x8 LINUX/depdom/CharacterDataImpl.o
 .group         0x0000000000000000        0x8 LINUX/depdom/CharacterDataImpl.o
 .group         0x0000000000000000        0x8 LINUX/depdom/CharacterDataImpl.o
 .group         0x0000000000000000        0x8 LINUX/depdom/CharacterDataImpl.o
 .group         0x0000000000000000        0x8 LINUX/depdom/CharacterDataImpl.o
 .group         0x0000000000000000        0x8 LINUX/depdom/CharacterDataImpl.o
 .group         0x0000000000000000        0x8 LINUX/depdom/CharacterDataImpl.o
 .group         0x0000000000000000        0x8 LINUX/depdom/CharacterDataImpl.o
 .text._ZN11xercesc_2_710XMLDeleterD2Ev
                0x0000000000000000        0xf LINUX/depdom/CharacterDataImpl.o
 .text._ZNK11xercesc_2_730ArrayIndexOutOfBoundsException7getTypeEv
                0x0000000000000000        0x8 LINUX/depdom/CharacterDataImpl.o
 .text._ZNK11xercesc_2_715BaseRefVectorOfINS_9RangeImplEE4sizeEv
                0x0000000000000000        0x4 LINUX/depdom/CharacterDataImpl.o
 .text._ZN11xercesc_2_710XMLDeleterD0Ev
                0x0000000000000000       0x1c LINUX/depdom/CharacterDataImpl.o
 .text._ZN11xercesc_2_715BaseRefVectorOfINS_9RangeImplEE9elementAtEj
                0x0000000000000000       0xbf LINUX/depdom/CharacterDataImpl.o
 .text._ZN11xercesc_2_730ArrayIndexOutOfBoundsExceptionD2Ev
                0x0000000000000000       0x1c LINUX/depdom/CharacterDataImpl.o
 .text._ZNK11xercesc_2_730ArrayIndexOutOfBoundsException9duplicateEv
                0x0000000000000000       0x6e LINUX/depdom/CharacterDataImpl.o
 .text._ZN11xercesc_2_730ArrayIndexOutOfBoundsExceptionD0Ev
                0x0000000000000000       0x21 LINUX/depdom/CharacterDataImpl.o
 .data.rel.ro._ZTVN11xercesc_2_710XMLDeleterE
                0x0000000000000000       0x20 LINUX/depdom/CharacterDataImpl.o
 .rodata._ZTSN11xercesc_2_710XMLDeleterE
                0x0000000000000000       0x1c LINUX/depdom/CharacterDataImpl.o
 .data.rel.ro._ZTIN11xercesc_2_710XMLDeleterE
                0x0000000000000000       0x10 LINUX/depdom/CharacterDataImpl.o
 .data.rel.ro._ZTIN11xercesc_2_730ArrayIndexOutOfBoundsExceptionE
                0x0000000000000000       0x18 LINUX/depdom/CharacterDataImpl.o
 .rodata._ZTSN11xercesc_2_730ArrayIndexOutOfBoundsExceptionE
                0x0000000000000000       0x30 LINUX/depdom/CharacterDataImpl.o
 .data.rel.ro._ZTVN11xercesc_2_730ArrayIndexOutOfBoundsExceptionE
                0x0000000000000000       0x30 LINUX/depdom/CharacterDataImpl.o
 .data.DW.ref.__gxx_personality_v0
                0x0000000000000000        0x8 LINUX/depdom/CharacterDataImpl.o
 .note.GNU-stack
                0x0000000000000000        0x0 LINUX/depdom/CharacterDataImpl.o
 .group         0x0000000000000000        0x8 LINUX/depdom/ChildNode.o
 .group         0x0000000000000000        0x8 LINUX/depdom/ChildNode.o
 .group         0x0000000000000000        0x8 LINUX/depdom/ChildNode.o
 .group         0x0000000000000000        0x8 LINUX/depdom/ChildNode.o
 .data.DW.ref.__gxx_personality_v0
                0x0000000000000000        0x8 LINUX/depdom/ChildNode.o
 .note.GNU-stack
                0x0000000000000000        0x0 LINUX/depdom/ChildNode.o
 _ZN11xercesc_2_710XMLDeleterD5Ev
                0x0000000000000000        0xc LINUX/depdom/CommentImpl.o
 .group         0x0000000000000000        0x8 LINUX/depdom/CommentImpl.o
 .group         0x0000000000000000        0x8 LINUX/depdom/CommentImpl.o
 .group         0x0000000000000000        0x8 LINUX/depdom/CommentImpl.o
 .group         0x0000000000000000        0x8 LINUX/depdom/CommentImpl.o
 .group         0x0000000000000000        0x8 LINUX/depdom/CommentImpl.o
 .group         0x0000000000000000        0x8 LINUX/depdom/CommentImpl.o
 .group         0x0000000000000000        0x8 LINUX/depdom/CommentImpl.o
 .text._ZN11xercesc_2_710XMLDeleterD2Ev
                0x0000000000000000        0xf LINUX/depdom/CommentImpl.o
 .text._ZN11xercesc_2_710XMLDeleterD0Ev
                0x0000000000000000       0x1c LINUX/depdom/CommentImpl.o
 .data.rel.ro._ZTVN11xercesc_2_710XMLDeleterE
                0x0000000000000000       0x20 LINUX/depdom/CommentImpl.o
 .rodata._ZTSN11xercesc_2_710XMLDeleterE
                0x0000000000000000       0x1c LINUX/depdom/CommentImpl.o
 .data.rel.ro._ZTIN11xercesc_2_710XMLDeleterE
                0x0000000000000000       0x10 LINUX/depdom/CommentImpl.o
 .data.DW.ref.__gxx_personality_v0
                0x0000000000000000        0x8 LINUX/depdom/CommentImpl.o
 .note.GNU-stack
                0x0000000000000000        0x0 LINUX/depdom/CommentImpl.o
 _ZN11xercesc_2_710XMLDeleterD5Ev
                0x0000000000000000        0xc LINUX/depdom/DeepNodeListImpl.o
 .group         0x0000000000000000        0x8 LINUX/depdom/DeepNodeListImpl.o
 .group         0x0000000000000000        0x8 LINUX/depdom/DeepNodeListImpl.o
 .group         0x0000000000000000        0x8 LINUX/depdom/DeepNodeListImpl.o
 .group         0x0000000000000000        0x8 LINUX/depdom/DeepNodeListImpl.o
 .group         0x0000000000000000        0x8 LINUX/depdom/DeepNodeListImpl.o
 .group         0x0000000000000000        0x8 LINUX/depdom/DeepNodeListImpl.o
 .group         0x0000000000000000        0x8 LINUX/depdom/DeepNodeListImpl.o
 .text._ZN11xercesc_2_710XMLDeleterD2Ev
                0x0000000000000000        0xf LINUX/depdom/DeepNodeListImpl.o
 .text._ZN11xercesc_2_710XMLDeleterD0Ev
                0x0000000000000000       0x1c LINUX/depdom/DeepNodeListImpl.o
 .data.rel.ro._ZTVN11xercesc_2_710XMLDeleterE
                0x0000000000000000       0x20 LINUX/depdom/DeepNodeListImpl.o
 .rodata._ZTSN11xercesc_2_710XMLDeleterE
                0x0000000000000000       0x1c LINUX/depdom/DeepNodeListImpl.o
 .data.rel.ro._ZTIN11xercesc_2_710XMLDeleterE
                0x0000000000000000       0x10 LINUX/depdom/DeepNodeListImpl.o
 .data.DW.ref.__gxx_personality_v0
                0x0000000000000000        0x8 LINUX/depdom/DeepNodeListImpl.o
 .note.GNU-stack
                0x0000000000000000        0x0 LINUX/depdom/DeepNodeListImpl.o
 _ZN11xercesc_2_710XMLDeleterD5Ev
                0x0000000000000000        0xc LINUX/depdom/DocumentFragmentImpl.o
 .group         0x0000000000000000        0x8 LINUX/depdom/DocumentFragmentImpl.o
 .group         0x0000000000000000        0x8 LINUX/depdom/DocumentFragmentImpl.o
 .group         0x0000000000000000        0x8 LINUX/depdom/DocumentFragmentImpl.o
 .group         0x0000000000000000        0x8 LINUX/depdom/DocumentFragmentImpl.o
 .group         0x0000000000000000        0x8 LINUX/depdom/DocumentFragmentImpl.o
 .group         0x0000000000000000        0x8 LINUX/depdom/DocumentFragmentImpl.o
 .group         0x0000000000000000        0x8 LINUX/depdom/DocumentFragmentImpl.o
 .text._ZN11xercesc_2_710XMLDeleterD2Ev
                0x0000000000000000        0xf LINUX/depdom/DocumentFragmentImpl.o
 .text._ZN11xercesc_2_710XMLDeleterD0Ev
                0x0000000000000000       0x1c LINUX/depdom/DocumentFragmentImpl.o
 .data.rel.ro._ZTVN11xercesc_2_710XMLDeleterE
                0x0000000000000000       0x20 LINUX/depdom/DocumentFragmentImpl.o
 .rodata._ZTSN11xercesc_2_710XMLDeleterE
                0x0000000000000000       0x1c LINUX/depdom/DocumentFragmentImpl.o
 .data.rel.ro._ZTIN11xercesc_2_710XMLDeleterE
                0x0000000000000000       0x10 LINUX/depdom/DocumentFragmentImpl.o
 .data.DW.ref.__gxx_personality_v0
                0x0000000000000000        0x8 LINUX/depdom/DocumentFragmentImpl.o
 .note.GNU-stack
                0x0000000000000000        0x0 LINUX/depdom/DocumentFragmentImpl.o
 .group         0x0000000000000000        0x8 LINUX/depdom/DocumentImpl.o
 _ZN11xercesc_2_710XMLDeleterD5Ev
                0x0000000000000000        0xc LINUX/depdom/DocumentImpl.o
 .group         0x0000000000000000        0x8 LINUX/depdom/DocumentImpl.o
 .group         0x0000000000000000        0x8 LINUX/depdom/DocumentImpl.o
 .group         0x0000000000000000        0x8 LINUX/depdom/DocumentImpl.o
 _ZN11xercesc_2_715BaseRefVectorOfINS_16NodeIteratorImplEED5Ev
                0x0000000000000000        0xc LINUX/depdom/DocumentImpl.o
 _ZN11xercesc_2_715BaseRefVectorOfINS_14TreeWalkerImplEED5Ev
                0x0000000000000000        0xc LINUX/depdom/DocumentImpl.o
 _ZN11xercesc_2_715BaseRefVectorOfINS_9RangeImplEED5Ev
                0x0000000000000000        0xc LINUX/depdom/DocumentImpl.o
 _ZN11xercesc_2_715BaseRefVectorOfINS_16NodeIteratorImplEEC5EjbPNS_13MemoryManagerE
                0x0000000000000000        0x8 LINUX/depdom/DocumentImpl.o
 _ZN11xercesc_2_711RefVectorOfINS_16NodeIteratorImplEEC5EjbPNS_13MemoryManagerE
                0x0000000000000000        0x8 LINUX/depdom/DocumentImpl.o
 .group         0x0000000000000000        0x8 LINUX/depdom/DocumentImpl.o
 .group         0x0000000000000000        0x8 LINUX/depdom/DocumentImpl.o
 _ZN11xercesc_2_715BaseRefVectorOfINS_14TreeWalkerImplEEC5EjbPNS_13MemoryManagerE
                0x0000000000000000        0x8 LINUX/depdom/DocumentImpl.o
 _ZN11xercesc_2_711RefVectorOfINS_14TreeWalkerImplEEC5EjbPNS_13MemoryManagerE
                0x0000000000000000        0x8 LINUX/depdom/DocumentImpl.o
 .group         0x0000000000000000        0x8 LINUX/depdom/DocumentImpl.o
 .group         0x0000000000000000        0x8 LINUX/depdom/DocumentImpl.o
 _ZN11xercesc_2_715BaseRefVectorOfINS_9RangeImplEEC5EjbPNS_13MemoryManagerE
                0x0000000000000000        0x8 LINUX/depdom/DocumentImpl.o
 _ZN11xercesc_2_711RefVectorOfINS_9RangeImplEEC5EjbPNS_13MemoryManagerE
                0x0000000000000000        0x8 LINUX/depdom/DocumentImpl.o
 .group         0x0000000000000000        0x8 LINUX/depdom/DocumentImpl.o
 .group         0x0000000000000000        0x8 LINUX/depdom/DocumentImpl.o
 .group         0x0000000000000000        0x8 LINUX/depdom/DocumentImpl.o
 .group         0x0000000000000000        0x8 LINUX/depdom/DocumentImpl.o
 _ZN11xercesc_2_712ArrayJanitorIPNS_22RefHashTableBucketElemIvEEEC5EPS3_PNS_13MemoryManagerE
                0x0000000000000000        0x8 LINUX/depdom/DocumentImpl.o
 .group         0x0000000000000000        0x8 LINUX/depdom/DocumentImpl.o
 .group         0x0000000000000000        0x8 LINUX/depdom/DocumentImpl.o
 .group         0x0000000000000000        0x8 LINUX/depdom/DocumentImpl.o
 .group         0x0000000000000000        0x8 LINUX/depdom/DocumentImpl.o
 .group         0x0000000000000000        0x8 LINUX/depdom/DocumentImpl.o
 .group         0x0000000000000000        0x8 LINUX/depdom/DocumentImpl.o
 .group         0x0000000000000000        0x8 LINUX/depdom/DocumentImpl.o
 .group         0x0000000000000000        0x8 LINUX/depdom/DocumentImpl.o
 .group         0x0000000000000000        0x8 LINUX/depdom/DocumentImpl.o
 .group         0x0000000000000000        0x8 LINUX/depdom/DocumentImpl.o
 .group         0x0000000000000000        0x8 LINUX/depdom/DocumentImpl.o
 .group         0x0000000000000000        0x8 LINUX/depdom/DocumentImpl.o
 .group         0x0000000000000000        0x8 LINUX/depdom/DocumentImpl.o
 _ZN11xercesc_2_714RefHashTableOfIvED5Ev
                0x0000000000000000        0x8 LINUX/depdom/DocumentImpl.o
 _ZN11xercesc_2_711RefVectorOfINS_9RangeImplEED5Ev
                0x0000000000000000        0xc LINUX/depdom/DocumentImpl.o
 _ZN11xercesc_2_711RefVectorOfINS_14TreeWalkerImplEED5Ev
                0x0000000000000000        0xc LINUX/depdom/DocumentImpl.o
 _ZN11xercesc_2_711RefVectorOfINS_16NodeIteratorImplEED5Ev
                0x0000000000000000        0xc LINUX/depdom/DocumentImpl.o
 .group         0x0000000000000000        0x8 LINUX/depdom/DocumentImpl.o
 _ZN11xercesc_2_714RefHashTableOfIvEC5EjbPNS_8HashBaseEPNS_13MemoryManagerE
                0x0000000000000000        0x8 LINUX/depdom/DocumentImpl.o
 _ZN11xercesc_2_724IllegalArgumentExceptionD5Ev
                0x0000000000000000        0xc LINUX/depdom/DocumentImpl.o
 .group         0x0000000000000000        0x8 LINUX/depdom/DocumentImpl.o
 _ZN11xercesc_2_722NoSuchElementExceptionD5Ev
                0x0000000000000000        0xc LINUX/depdom/DocumentImpl.o
 .group         0x0000000000000000        0x8 LINUX/depdom/DocumentImpl.o
 _ZN11xercesc_2_730ArrayIndexOutOfBoundsExceptionD5Ev
                0x0000000000000000        0xc LINUX/depdom/DocumentImpl.o
 .group         0x0000000000000000        0x8 LINUX/depdom/DocumentImpl.o
 .group         0x0000000000000000        0x8 LINUX/depdom/DocumentImpl.o
 .group         0x0000000000000000        0x8 LINUX/depdom/DocumentImpl.o
 .group         0x0000000000000000        0x8 LINUX/depdom/DocumentImpl.o
 _ZN11xercesc_2_712ArrayJanitorIPNS_22RefHashTableBucketElemIvEEED5Ev
                0x0000000000000000        0x8 LINUX/depdom/DocumentImpl.o
 .group         0x0000000000000000        0x8 LINUX/depdom/DocumentImpl.o
 .group         0x0000000000000000        0x8 LINUX/depdom/DocumentImpl.o
 .group         0x0000000000000000        0x8 LINUX/depdom/DocumentImpl.o
 .group         0x0000000000000000        0x8 LINUX/depdom/DocumentImpl.o
 .group         0x0000000000000000        0x8 LINUX/depdom/DocumentImpl.o
 .group         0x0000000000000000        0x8 LINUX/depdom/DocumentImpl.o
 .group         0x0000000000000000        0x8 LINUX/depdom/DocumentImpl.o
 .group         0x0000000000000000        0x8 LINUX/depdom/DocumentImpl.o
 .group         0x0000000000000000        0x8 LINUX/depdom/DocumentImpl.o
 .group         0x0000000000000000        0x8 LINUX/depdom/DocumentImpl.o
 .group         0x0000000000000000        0x8 LINUX/depdom/DocumentImpl.o
 .group         0x0000000000000000        0x8 LINUX/depdom/DocumentImpl.o
 .group         0x0000000000000000        0x8 LINUX/depdom/DocumentImpl.o
 .group         0x0000000000000000        0x8 LINUX/depdom/DocumentImpl.o
 .group         0x0000000000000000        0x8 LINUX/depdom/DocumentImpl.o
 .group         0x0000000000000000        0x8 LINUX/depdom/DocumentImpl.o
 .group         0x0000000000000000        0x8 LINUX/depdom/DocumentImpl.o
 .group         0x0000000000000000        0x8 LINUX/depdom/DocumentImpl.o
 .group         0x0000000000000000        0x8 LINUX/depdom/DocumentImpl.o
 .group         0x0000000000000000        0x8 LINUX/depdom/DocumentImpl.o
 .group         0x0000000000000000        0x8 LINUX/depdom/DocumentImpl.o
 .group         0x0000000000000000        0x8 LINUX/depdom/DocumentImpl.o
 .group         0x0000000000000000        0x8 LINUX/depdom/DocumentImpl.o
 .group         0x0000000000000000        0x8 LINUX/depdom/DocumentImpl.o
 .group         0x0000000000000000        0x8 LINUX/depdom/DocumentImpl.o
 .group         0x0000000000000000        0x8 LINUX/depdom/DocumentImpl.o
 .group         0x0000000000000000        0x8 LINUX/depdom/DocumentImpl.o
 .group         0x0000000000000000        0x8 LINUX/depdom/DocumentImpl.o
 .group         0x0000000000000000        0x8 LINUX/depdom/DocumentImpl.o
 .group         0x0000000000000000        0x8 LINUX/depdom/DocumentImpl.o
 .group         0x0000000000000000        0x8 LINUX/depdom/DocumentImpl.o
 .group         0x0000000000000000        0x8 LINUX/depdom/DocumentImpl.o
 .group         0x0000000000000000        0x8 LINUX/depdom/DocumentImpl.o
 .group         0x0000000000000000        0x8 LINUX/depdom/DocumentImpl.o
 .group         0x0000000000000000        0x8 LINUX/depdom/DocumentImpl.o
 .group         0x0000000000000000        0x8 LINUX/depdom/DocumentImpl.o
 .group         0x0000000000000000        0x8 LINUX/depdom/DocumentImpl.o
 .group         0x0000000000000000        0x8 LINUX/depdom/DocumentImpl.o
 .group         0x0000000000000000        0x8 LINUX/depdom/DocumentImpl.o
 .group         0x0000000000000000        0x8 LINUX/depdom/DocumentImpl.o
 .group         0x0000000000000000        0x8 LINUX/depdom/DocumentImpl.o
 .group         0x0000000000000000        0x8 LINUX/depdom/DocumentImpl.o
 .group         0x0000000000000000        0x8 LINUX/depdom/DocumentImpl.o
 .group         0x0000000000000000        0x8 LINUX/depdom/DocumentImpl.o
 .text._ZNK11xercesc_2_730ArrayIndexOutOfBoundsException7getTypeEv
                0x0000000000000000        0x8 LINUX/depdom/DocumentImpl.o
 .text._ZN11xercesc_2_710XMLDeleterD2Ev
                0x0000000000000000        0xf LINUX/depdom/DocumentImpl.o
 .text._ZNK11xercesc_2_715BaseRefVectorOfINS_9RangeImplEE4sizeEv
                0x0000000000000000        0x4 LINUX/depdom/DocumentImpl.o
 .text._ZN11xercesc_2_710XMLDeleterD0Ev
                0x0000000000000000       0x1c LINUX/depdom/DocumentImpl.o
 .text._ZN11xercesc_2_730ArrayIndexOutOfBoundsExceptionD2Ev
                0x0000000000000000       0x1c LINUX/depdom/DocumentImpl.o
 .text._ZNK11xercesc_2_730ArrayIndexOutOfBoundsException9duplicateEv
                0x0000000000000000       0x6e LINUX/depdom/DocumentImpl.o
 .text._ZN11xercesc_2_730ArrayIndexOutOfBoundsExceptionD0Ev
                0x0000000000000000       0x21 LINUX/depdom/DocumentImpl.o
 .text._ZN11xercesc_2_715BaseRefVectorOfINS_9RangeImplEE9elementAtEj
                0x0000000000000000       0xbf LINUX/depdom/DocumentImpl.o
 .data.rel.ro._ZTVN11xercesc_2_710XMLDeleterE
                0x0000000000000000       0x20 LINUX/depdom/DocumentImpl.o
 .rodata._ZTSN11xercesc_2_710XMLDeleterE
                0x0000000000000000       0x1c LINUX/depdom/DocumentImpl.o
 .data.rel.ro._ZTIN11xercesc_2_710XMLDeleterE
                0x0000000000000000       0x10 LINUX/depdom/DocumentImpl.o
 .data.rel.ro._ZTIN11xercesc_2_730ArrayIndexOutOfBoundsExceptionE
                0x0000000000000000       0x18 LINUX/depdom/DocumentImpl.o
 .rodata._ZTSN11xercesc_2_730ArrayIndexOutOfBoundsExceptionE
                0x0000000000000000       0x30 LINUX/depdom/DocumentImpl.o
 .data.rel.ro._ZTVN11xercesc_2_730ArrayIndexOutOfBoundsExceptionE
                0x0000000000000000       0x30 LINUX/depdom/DocumentImpl.o
 .data.DW.ref.__gxx_personality_v0
                0x0000000000000000        0x8 LINUX/depdom/DocumentImpl.o
 .note.GNU-stack
                0x0000000000000000        0x0 LINUX/depdom/DocumentImpl.o
 _ZN11xercesc_2_710XMLDeleterD5Ev
                0x0000000000000000        0xc LINUX/depdom/DocumentTypeImpl.o
 .group         0x0000000000000000        0x8 LINUX/depdom/DocumentTypeImpl.o
 .group         0x0000000000000000        0x8 LINUX/depdom/DocumentTypeImpl.o
 .group         0x0000000000000000        0x8 LINUX/depdom/DocumentTypeImpl.o
 .group         0x0000000000000000        0x8 LINUX/depdom/DocumentTypeImpl.o
 .group         0x0000000000000000        0x8 LINUX/depdom/DocumentTypeImpl.o
 .group         0x0000000000000000        0x8 LINUX/depdom/DocumentTypeImpl.o
 .group         0x0000000000000000        0x8 LINUX/depdom/DocumentTypeImpl.o
 .text._ZN11xercesc_2_710XMLDeleterD2Ev
                0x0000000000000000        0xf LINUX/depdom/DocumentTypeImpl.o
 .text._ZN11xercesc_2_710XMLDeleterD0Ev
                0x0000000000000000       0x1c LINUX/depdom/DocumentTypeImpl.o
 .data.rel.ro._ZTVN11xercesc_2_710XMLDeleterE
                0x0000000000000000       0x20 LINUX/depdom/DocumentTypeImpl.o
 .rodata._ZTSN11xercesc_2_710XMLDeleterE
                0x0000000000000000       0x1c LINUX/depdom/DocumentTypeImpl.o
 .data.rel.ro._ZTIN11xercesc_2_710XMLDeleterE
                0x0000000000000000       0x10 LINUX/depdom/DocumentTypeImpl.o
 .data.DW.ref.__gxx_personality_v0
                0x0000000000000000        0x8 LINUX/depdom/DocumentTypeImpl.o
 .note.GNU-stack
                0x0000000000000000        0x0 LINUX/depdom/DocumentTypeImpl.o
 .group         0x0000000000000000        0x8 LINUX/depdom/DOM_Attr.o
 .data.DW.ref.__gxx_personality_v0
                0x0000000000000000        0x8 LINUX/depdom/DOM_Attr.o
 .note.GNU-stack
                0x0000000000000000        0x0 LINUX/depdom/DOM_Attr.o
 .group         0x0000000000000000        0x8 LINUX/depdom/DOM_CDATASection.o
 .data.DW.ref.__gxx_personality_v0
                0x0000000000000000        0x8 LINUX/depdom/DOM_CDATASection.o
 .note.GNU-stack
                0x0000000000000000        0x0 LINUX/depdom/DOM_CDATASection.o
 .group         0x0000000000000000        0x8 LINUX/depdom/DOM_CharacterData.o
 .data.DW.ref.__gxx_personality_v0
                0x0000000000000000        0x8 LINUX/depdom/DOM_CharacterData.o
 .note.GNU-stack
                0x0000000000000000        0x0 LINUX/depdom/DOM_CharacterData.o
 .group         0x0000000000000000        0x8 LINUX/depdom/DOM_Comment.o
 .data.DW.ref.__gxx_personality_v0
                0x0000000000000000        0x8 LINUX/depdom/DOM_Comment.o
 .note.GNU-stack
                0x0000000000000000        0x0 LINUX/depdom/DOM_Comment.o
 .group         0x0000000000000000        0x8 LINUX/depdom/DOM_DocumentFragment.o
 .data.DW.ref.__gxx_personality_v0
                0x0000000000000000        0x8 LINUX/depdom/DOM_DocumentFragment.o
 .note.GNU-stack
                0x0000000000000000        0x0 LINUX/depdom/DOM_DocumentFragment.o
 _ZN11xercesc_2_710XMLDeleterD5Ev
                0x0000000000000000        0xc LINUX/depdom/DOM_Document.o
 .group         0x0000000000000000        0x8 LINUX/depdom/DOM_Document.o
 .group         0x0000000000000000        0x8 LINUX/depdom/DOM_Document.o
 .group         0x0000000000000000        0x8 LINUX/depdom/DOM_Document.o
 .group         0x0000000000000000        0x8 LINUX/depdom/DOM_Document.o
 .text._ZN11xercesc_2_710XMLDeleterD2Ev
                0x0000000000000000        0xf LINUX/depdom/DOM_Document.o
 .text._ZN11xercesc_2_710XMLDeleterD0Ev
                0x0000000000000000       0x1c LINUX/depdom/DOM_Document.o
 .data.rel.ro._ZTVN11xercesc_2_710XMLDeleterE
                0x0000000000000000       0x20 LINUX/depdom/DOM_Document.o
 .rodata._ZTSN11xercesc_2_710XMLDeleterE
                0x0000000000000000       0x1c LINUX/depdom/DOM_Document.o
 .data.rel.ro._ZTIN11xercesc_2_710XMLDeleterE
                0x0000000000000000       0x10 LINUX/depdom/DOM_Document.o
 .data.DW.ref.__gxx_personality_v0
                0x0000000000000000        0x8 LINUX/depdom/DOM_Document.o
 .note.GNU-stack
                0x0000000000000000        0x0 LINUX/depdom/DOM_Document.o
 .group         0x0000000000000000        0x8 LINUX/depdom/DOM_DocumentType.o
 .data.DW.ref.__gxx_personality_v0
                0x0000000000000000        0x8 LINUX/depdom/DOM_DocumentType.o
 .note.GNU-stack
                0x0000000000000000        0x0 LINUX/depdom/DOM_DocumentType.o
 .group         0x0000000000000000        0x8 LINUX/depdom/DOM_DOMException.o
 .group         0x0000000000000000        0x8 LINUX/depdom/DOM_DOMException.o
 .group         0x0000000000000000        0x8 LINUX/depdom/DOM_DOMException.o
 .group         0x0000000000000000        0x8 LINUX/depdom/DOM_DOMException.o
 .data.DW.ref.__gxx_personality_v0
                0x0000000000000000        0x8 LINUX/depdom/DOM_DOMException.o
 .note.GNU-stack
                0x0000000000000000        0x0 LINUX/depdom/DOM_DOMException.o
 _ZN11xercesc_2_710XMLDeleterD5Ev
                0x0000000000000000        0xc LINUX/depdom/DOM_DOMImplementation.o
 .group         0x0000000000000000        0x8 LINUX/depdom/DOM_DOMImplementation.o
 .group         0x0000000000000000        0x8 LINUX/depdom/DOM_DOMImplementation.o
 .group         0x0000000000000000        0x8 LINUX/depdom/DOM_DOMImplementation.o
 .group         0x0000000000000000        0x8 LINUX/depdom/DOM_DOMImplementation.o
 .text._ZN11xercesc_2_710XMLDeleterD2Ev
                0x0000000000000000        0xf LINUX/depdom/DOM_DOMImplementation.o
 .text._ZN11xercesc_2_710XMLDeleterD0Ev
                0x0000000000000000       0x1c LINUX/depdom/DOM_DOMImplementation.o
 .data.rel.ro._ZTVN11xercesc_2_710XMLDeleterE
                0x0000000000000000       0x20 LINUX/depdom/DOM_DOMImplementation.o
 .rodata._ZTSN11xercesc_2_710XMLDeleterE
                0x0000000000000000       0x1c LINUX/depdom/DOM_DOMImplementation.o
 .data.rel.ro._ZTIN11xercesc_2_710XMLDeleterE
                0x0000000000000000       0x10 LINUX/depdom/DOM_DOMImplementation.o
 .data.DW.ref.__gxx_personality_v0
                0x0000000000000000        0x8 LINUX/depdom/DOM_DOMImplementation.o
 .note.GNU-stack
                0x0000000000000000        0x0 LINUX/depdom/DOM_DOMImplementation.o
 .group         0x0000000000000000        0x8 LINUX/depdom/DOM_Element.o
 .data.DW.ref.__gxx_personality_v0
                0x0000000000000000        0x8 LINUX/depdom/DOM_Element.o
 .note.GNU-stack
                0x0000000000000000        0x0 LINUX/depdom/DOM_Element.o
 .group         0x0000000000000000        0x8 LINUX/depdom/DOM_Entity.o
 .data.DW.ref.__gxx_personality_v0
                0x0000000000000000        0x8 LINUX/depdom/DOM_Entity.o
 .note.GNU-stack
                0x0000000000000000        0x0 LINUX/depdom/DOM_Entity.o
 .group         0x0000000000000000        0x8 LINUX/depdom/DOM_EntityReference.o
 .data.DW.ref.__gxx_personality_v0
                0x0000000000000000        0x8 LINUX/depdom/DOM_EntityReference.o
 .note.GNU-stack
                0x0000000000000000        0x0 LINUX/depdom/DOM_EntityReference.o
 .group         0x0000000000000000        0x8 LINUX/depdom/DomMemDebug.o
 .data.DW.ref.__gxx_personality_v0
                0x0000000000000000        0x8 LINUX/depdom/DomMemDebug.o
 .note.GNU-stack
                0x0000000000000000        0x0 LINUX/depdom/DomMemDebug.o
 .group         0x0000000000000000        0x8 LINUX/depdom/DOM_NamedNodeMap.o
 .data.DW.ref.__gxx_personality_v0
                0x0000000000000000        0x8 LINUX/depdom/DOM_NamedNodeMap.o
 .note.GNU-stack
                0x0000000000000000        0x0 LINUX/depdom/DOM_NamedNodeMap.o
 .group         0x0000000000000000        0x8 LINUX/depdom/DOM_NodeFilter.o
 .group         0x0000000000000000        0x8 LINUX/depdom/DOM_NodeFilter.o
 .group         0x0000000000000000        0x8 LINUX/depdom/DOM_NodeFilter.o
 .group         0x0000000000000000        0x8 LINUX/depdom/DOM_NodeFilter.o
 .data.DW.ref.__gxx_personality_v0
                0x0000000000000000        0x8 LINUX/depdom/DOM_NodeFilter.o
 .note.GNU-stack
                0x0000000000000000        0x0 LINUX/depdom/DOM_NodeFilter.o
 .group         0x0000000000000000        0x8 LINUX/depdom/DOM_NodeIterator.o
 .data.DW.ref.__gxx_personality_v0
                0x0000000000000000        0x8 LINUX/depdom/DOM_NodeIterator.o
 .note.GNU-stack
                0x0000000000000000        0x0 LINUX/depdom/DOM_NodeIterator.o
 .group         0x0000000000000000        0x8 LINUX/depdom/DOM_NodeList.o
 .data.DW.ref.__gxx_personality_v0
                0x0000000000000000        0x8 LINUX/depdom/DOM_NodeList.o
 .note.GNU-stack
                0x0000000000000000        0x0 LINUX/depdom/DOM_NodeList.o
 _ZN11xercesc_2_710XMLDeleterD5Ev
                0x0000000000000000        0xc LINUX/depdom/DOM_Node.o
 .group         0x0000000000000000        0x8 LINUX/depdom/DOM_Node.o
 .group         0x0000000000000000        0x8 LINUX/depdom/DOM_Node.o
 .group         0x0000000000000000        0x8 LINUX/depdom/DOM_Node.o
 .group         0x0000000000000000        0x8 LINUX/depdom/DOM_Node.o
 .text._ZN11xercesc_2_710XMLDeleterD2Ev
                0x0000000000000000        0xf LINUX/depdom/DOM_Node.o
 .text._ZN11xercesc_2_710XMLDeleterD0Ev
                0x0000000000000000       0x1c LINUX/depdom/DOM_Node.o
 .data.rel.ro._ZTVN11xercesc_2_710XMLDeleterE
                0x0000000000000000       0x20 LINUX/depdom/DOM_Node.o
 .rodata._ZTSN11xercesc_2_710XMLDeleterE
                0x0000000000000000       0x1c LINUX/depdom/DOM_Node.o
 .data.rel.ro._ZTIN11xercesc_2_710XMLDeleterE
                0x0000000000000000       0x10 LINUX/depdom/DOM_Node.o
 .data.DW.ref.__gxx_personality_v0
                0x0000000000000000        0x8 LINUX/depdom/DOM_Node.o
 .note.GNU-stack
                0x0000000000000000        0x0 LINUX/depdom/DOM_Node.o
 .group         0x0000000000000000        0x8 LINUX/depdom/DOM_Notation.o
 .data.DW.ref.__gxx_personality_v0
                0x0000000000000000        0x8 LINUX/depdom/DOM_Notation.o
 .note.GNU-stack
                0x0000000000000000        0x0 LINUX/depdom/DOM_Notation.o
 _ZN11xercesc_2_716XMLErrorReporterD5Ev
                0x0000000000000000        0xc LINUX/depdom/DOMParser.o
 _ZN11xercesc_2_710XMLDeleterD5Ev
                0x0000000000000000        0xc LINUX/depdom/DOMParser.o
 .group         0x0000000000000000        0x8 LINUX/depdom/DOMParser.o
 _ZN11xercesc_2_713XSerializableD5Ev
                0x0000000000000000        0xc LINUX/depdom/DOMParser.o
 _ZN11xercesc_2_710XMLRefInfoD5Ev
                0x0000000000000000        0xc LINUX/depdom/DOMParser.o
 .group         0x0000000000000000        0x8 LINUX/depdom/DOMParser.o
 .group         0x0000000000000000        0x8 LINUX/depdom/DOMParser.o
 .group         0x0000000000000000        0x8 LINUX/depdom/DOMParser.o
 .group         0x0000000000000000        0x8 LINUX/depdom/DOMParser.o
 _ZN11xercesc_2_713XMLAttDefListD5Ev
                0x0000000000000000        0xc LINUX/depdom/DOMParser.o
 .group         0x0000000000000000        0x8 LINUX/depdom/DOMParser.o
 _ZN11xercesc_2_718XMLDocumentHandlerD5Ev
                0x0000000000000000        0xc LINUX/depdom/DOMParser.o
 .group         0x0000000000000000        0x8 LINUX/depdom/DOMParser.o
 _ZN11xercesc_2_716XMLEntityHandlerD5Ev
                0x0000000000000000        0xc LINUX/depdom/DOMParser.o
 _ZN11xercesc_2_714DocTypeHandlerD5Ev
                0x0000000000000000        0xc LINUX/depdom/DOMParser.o
 .group         0x0000000000000000        0x8 LINUX/depdom/DOMParser.o
 .group         0x0000000000000000        0x8 LINUX/depdom/DOMParser.o
 .group         0x0000000000000000        0x8 LINUX/depdom/DOMParser.o
 .group         0x0000000000000000        0x8 LINUX/depdom/DOMParser.o
 _ZN11xercesc_2_715ContentSpecNodeD5Ev
                0x0000000000000000        0xc LINUX/depdom/DOMParser.o
 .group         0x0000000000000000        0x8 LINUX/depdom/DOMParser.o
 .group         0x0000000000000000        0x8 LINUX/depdom/DOMParser.o
 .group         0x0000000000000000        0x8 LINUX/depdom/DOMParser.o
 .group         0x0000000000000000        0x8 LINUX/depdom/DOMParser.o
 .group         0x0000000000000000        0x8 LINUX/depdom/DOMParser.o
 _ZN11xercesc_2_713DTDEntityDeclD5Ev
                0x0000000000000000        0xc LINUX/depdom/DOMParser.o
 _ZN11xercesc_2_711IOExceptionD5Ev
                0x0000000000000000        0xc LINUX/depdom/DOMParser.o
 _ZN11xercesc_2_730ArrayIndexOutOfBoundsExceptionD5Ev
                0x0000000000000000        0xc LINUX/depdom/DOMParser.o
 _ZN11xercesc_2_719EmptyStackExceptionD5Ev
                0x0000000000000000        0xc LINUX/depdom/DOMParser.o
 .group         0x0000000000000000        0x8 LINUX/depdom/DOMParser.o
 .group         0x0000000000000000        0x8 LINUX/depdom/DOMParser.o
 .group         0x0000000000000000        0x8 LINUX/depdom/DOMParser.o
 _ZN11xercesc_2_713ValueVectorOfINS_8DOM_NodeEED5Ev
                0x0000000000000000        0x8 LINUX/depdom/DOMParser.o
 _ZN11xercesc_2_712ValueStackOfINS_8DOM_NodeEED5Ev
                0x0000000000000000        0x8 LINUX/depdom/DOMParser.o
 .group         0x0000000000000000        0x8 LINUX/depdom/DOMParser.o
 .group         0x0000000000000000        0x8 LINUX/depdom/DOMParser.o
 .group         0x0000000000000000        0x8 LINUX/depdom/DOMParser.o
 .group         0x0000000000000000        0x8 LINUX/depdom/DOMParser.o
 _ZN11xercesc_2_713ValueVectorOfINS_8DOM_NodeEEC5EjPNS_13MemoryManagerEb
                0x0000000000000000        0x8 LINUX/depdom/DOMParser.o
 _ZN11xercesc_2_712ValueStackOfINS_8DOM_NodeEEC5EjPNS_13MemoryManagerEb
                0x0000000000000000        0x8 LINUX/depdom/DOMParser.o
 .group         0x0000000000000000        0x8 LINUX/depdom/DOMParser.o
 .group         0x0000000000000000        0x8 LINUX/depdom/DOMParser.o
 .group         0x0000000000000000        0x8 LINUX/depdom/DOMParser.o
 .group         0x0000000000000000        0x8 LINUX/depdom/DOMParser.o
 .group         0x0000000000000000        0x8 LINUX/depdom/DOMParser.o
 .group         0x0000000000000000        0x8 LINUX/depdom/DOMParser.o
 .group         0x0000000000000000        0x8 LINUX/depdom/DOMParser.o
 .group         0x0000000000000000        0x8 LINUX/depdom/DOMParser.o
 .group         0x0000000000000000        0x8 LINUX/depdom/DOMParser.o
 .group         0x0000000000000000        0x8 LINUX/depdom/DOMParser.o
 .group         0x0000000000000000        0x8 LINUX/depdom/DOMParser.o
 .group         0x0000000000000000        0x8 LINUX/depdom/DOMParser.o
 .group         0x0000000000000000        0x8 LINUX/depdom/DOMParser.o
 .group         0x0000000000000000        0x8 LINUX/depdom/DOMParser.o
 .group         0x0000000000000000        0x8 LINUX/depdom/DOMParser.o
 .group         0x0000000000000000        0x8 LINUX/depdom/DOMParser.o
 .group         0x0000000000000000        0x8 LINUX/depdom/DOMParser.o
 .group         0x0000000000000000        0x8 LINUX/depdom/DOMParser.o
 .group         0x0000000000000000        0x8 LINUX/depdom/DOMParser.o
 .group         0x0000000000000000        0x8 LINUX/depdom/DOMParser.o
 .group         0x0000000000000000        0x8 LINUX/depdom/DOMParser.o
 .group         0x0000000000000000        0x8 LINUX/depdom/DOMParser.o
 .group         0x0000000000000000        0x8 LINUX/depdom/DOMParser.o
 .group         0x0000000000000000        0x8 LINUX/depdom/DOMParser.o
 .group         0x0000000000000000        0x8 LINUX/depdom/DOMParser.o
 .group         0x0000000000000000        0x8 LINUX/depdom/DOMParser.o
 .group         0x0000000000000000        0x8 LINUX/depdom/DOMParser.o
 .group         0x0000000000000000        0x8 LINUX/depdom/DOMParser.o
 .group         0x0000000000000000        0x8 LINUX/depdom/DOMParser.o
 .group         0x0000000000000000        0x8 LINUX/depdom/DOMParser.o
 .group         0x0000000000000000        0x8 LINUX/depdom/DOMParser.o
 .group         0x0000000000000000        0x8 LINUX/depdom/DOMParser.o
 .group         0x0000000000000000        0x8 LINUX/depdom/DOMParser.o
 .group         0x0000000000000000        0x8 LINUX/depdom/DOMParser.o
 .group         0x0000000000000000        0x8 LINUX/depdom/DOMParser.o
 .group         0x0000000000000000        0x8 LINUX/depdom/DOMParser.o
 .group         0x0000000000000000        0x8 LINUX/depdom/DOMParser.o
 .group         0x0000000000000000        0x8 LINUX/depdom/DOMParser.o
 .group         0x0000000000000000        0x8 LINUX/depdom/DOMParser.o
 .group         0x0000000000000000        0x8 LINUX/depdom/DOMParser.o
 .group         0x0000000000000000        0x8 LINUX/depdom/DOMParser.o
 .group         0x0000000000000000        0x8 LINUX/depdom/DOMParser.o
 .group         0x0000000000000000        0x8 LINUX/depdom/DOMParser.o
 .group         0x0000000000000000        0x8 LINUX/depdom/DOMParser.o
 .group         0x0000000000000000        0x8 LINUX/depdom/DOMParser.o
 .group         0x0000000000000000        0x8 LINUX/depdom/DOMParser.o
 .group         0x0000000000000000        0x8 LINUX/depdom/DOMParser.o
 .group         0x0000000000000000        0x8 LINUX/depdom/DOMParser.o
 .group         0x0000000000000000        0x8 LINUX/depdom/DOMParser.o
 .group         0x0000000000000000        0x8 LINUX/depdom/DOMParser.o
 .group         0x0000000000000000        0x8 LINUX/depdom/DOMParser.o
 .text._ZN11xercesc_2_710XMLDeleterD2Ev
                0x0000000000000000        0xf LINUX/depdom/DOMParser.o
 .text._ZNK11xercesc_2_730ArrayIndexOutOfBoundsException7getTypeEv
                0x0000000000000000        0x8 LINUX/depdom/DOMParser.o
 .text._ZN11xercesc_2_710XMLDeleterD0Ev
                0x0000000000000000       0x1c LINUX/depdom/DOMParser.o
 .text._ZN11xercesc_2_730ArrayIndexOutOfBoundsExceptionD2Ev
                0x0000000000000000       0x1c LINUX/depdom/DOMParser.o
 .text._ZNK11xercesc_2_730ArrayIndexOutOfBoundsException9duplicateEv
                0x0000000000000000       0x6e LINUX/depdom/DOMParser.o
 .text._ZN11xercesc_2_730ArrayIndexOutOfBoundsExceptionD0Ev
                0x0000000000000000       0x21 LINUX/depdom/DOMParser.o
 .data.rel.ro._ZTVN11xercesc_2_710XMLDeleterE
                0x0000000000000000       0x20 LINUX/depdom/DOMParser.o
 .rodata._ZTSN11xercesc_2_710XMLDeleterE
                0x0000000000000000       0x1c LINUX/depdom/DOMParser.o
 .data.rel.ro._ZTIN11xercesc_2_710XMLDeleterE
                0x0000000000000000       0x10 LINUX/depdom/DOMParser.o
 .data.rel.ro._ZTIN11xercesc_2_77XMemoryE
                0x0000000000000000       0x10 LINUX/depdom/DOMParser.o
 .rodata._ZTSN11xercesc_2_77XMemoryE
                0x0000000000000000       0x18 LINUX/depdom/DOMParser.o
 .data.rel.ro._ZTIN11xercesc_2_730ArrayIndexOutOfBoundsExceptionE
                0x0000000000000000       0x18 LINUX/depdom/DOMParser.o
 .rodata._ZTSN11xercesc_2_730ArrayIndexOutOfBoundsExceptionE
                0x0000000000000000       0x30 LINUX/depdom/DOMParser.o
 .data.rel.ro._ZTVN11xercesc_2_730ArrayIndexOutOfBoundsExceptionE
                0x0000000000000000       0x30 LINUX/depdom/DOMParser.o
 .data.DW.ref.__gxx_personality_v0
                0x0000000000000000        0x8 LINUX/depdom/DOMParser.o
 .note.GNU-stack
                0x0000000000000000        0x0 LINUX/depdom/DOMParser.o
 .group         0x0000000000000000        0x8 LINUX/depdom/DOM_ProcessingInstruction.o
 .data.DW.ref.__gxx_personality_v0
                0x0000000000000000        0x8 LINUX/depdom/DOM_ProcessingInstruction.o
 .note.GNU-stack
                0x0000000000000000        0x0 LINUX/depdom/DOM_ProcessingInstruction.o
 .group         0x0000000000000000        0x8 LINUX/depdom/DOM_RangeException.o
 .group         0x0000000000000000        0x8 LINUX/depdom/DOM_RangeException.o
 .group         0x0000000000000000        0x8 LINUX/depdom/DOM_RangeException.o
 .group         0x0000000000000000        0x8 LINUX/depdom/DOM_RangeException.o
 .data.DW.ref.__gxx_personality_v0
                0x0000000000000000        0x8 LINUX/depdom/DOM_RangeException.o
 .note.GNU-stack
                0x0000000000000000        0x0 LINUX/depdom/DOM_RangeException.o
 _ZN11xercesc_2_710XMLDeleterD5Ev
                0x0000000000000000        0xc LINUX/depdom/DOM_Range.o
 .group         0x0000000000000000        0x8 LINUX/depdom/DOM_Range.o
 .group         0x0000000000000000        0x8 LINUX/depdom/DOM_Range.o
 .group         0x0000000000000000        0x8 LINUX/depdom/DOM_Range.o
 .group         0x0000000000000000        0x8 LINUX/depdom/DOM_Range.o
 .text._ZN11xercesc_2_710XMLDeleterD2Ev
                0x0000000000000000        0xf LINUX/depdom/DOM_Range.o
 .text._ZN11xercesc_2_710XMLDeleterD0Ev
                0x0000000000000000       0x1c LINUX/depdom/DOM_Range.o
 .data.rel.ro._ZTVN11xercesc_2_710XMLDeleterE
                0x0000000000000000       0x20 LINUX/depdom/DOM_Range.o
 .rodata._ZTSN11xercesc_2_710XMLDeleterE
                0x0000000000000000       0x1c LINUX/depdom/DOM_Range.o
 .data.rel.ro._ZTIN11xercesc_2_710XMLDeleterE
                0x0000000000000000       0x10 LINUX/depdom/DOM_Range.o
 .data.DW.ref.__gxx_personality_v0
                0x0000000000000000        0x8 LINUX/depdom/DOM_Range.o
 .note.GNU-stack
                0x0000000000000000        0x0 LINUX/depdom/DOM_Range.o
 _ZN11xercesc_2_710XMLDeleterD5Ev
                0x0000000000000000        0xc LINUX/depdom/DOMString.o
 .group         0x0000000000000000        0x8 LINUX/depdom/DOMString.o
 .group         0x0000000000000000        0x8 LINUX/depdom/DOMString.o
 .group         0x0000000000000000        0x8 LINUX/depdom/DOMString.o
 .group         0x0000000000000000        0x8 LINUX/depdom/DOMString.o
 .text._ZN11xercesc_2_710XMLDeleterD2Ev
                0x0000000000000000        0xf LINUX/depdom/DOMString.o
 .text._ZN11xercesc_2_710XMLDeleterD0Ev
                0x0000000000000000       0x1c LINUX/depdom/DOMString.o
 .data.rel.ro._ZTVN11xercesc_2_710XMLDeleterE
                0x0000000000000000       0x20 LINUX/depdom/DOMString.o
 .rodata._ZTSN11xercesc_2_710XMLDeleterE
                0x0000000000000000       0x1c LINUX/depdom/DOMString.o
 .data.rel.ro._ZTIN11xercesc_2_710XMLDeleterE
                0x0000000000000000       0x10 LINUX/depdom/DOMString.o
 .data.DW.ref.__gxx_personality_v0
                0x0000000000000000        0x8 LINUX/depdom/DOMString.o
 .note.GNU-stack
                0x0000000000000000        0x0 LINUX/depdom/DOMString.o
 .group         0x0000000000000000        0x8 LINUX/depdom/DOM_Text.o
 .data.DW.ref.__gxx_personality_v0
                0x0000000000000000        0x8 LINUX/depdom/DOM_Text.o
 .note.GNU-stack
                0x0000000000000000        0x0 LINUX/depdom/DOM_Text.o
 .group         0x0000000000000000        0x8 LINUX/depdom/DOM_TreeWalker.o
 .data.DW.ref.__gxx_personality_v0
                0x0000000000000000        0x8 LINUX/depdom/DOM_TreeWalker.o
 .note.GNU-stack
                0x0000000000000000        0x0 LINUX/depdom/DOM_TreeWalker.o
 .group         0x0000000000000000        0x8 LINUX/depdom/DOM_XMLDecl.o
 .data.DW.ref.__gxx_personality_v0
                0x0000000000000000        0x8 LINUX/depdom/DOM_XMLDecl.o
 .note.GNU-stack
                0x0000000000000000        0x0 LINUX/depdom/DOM_XMLDecl.o
 _ZN11xercesc_2_710XMLDeleterD5Ev
                0x0000000000000000        0xc LINUX/depdom/DStringPool.o
 .group         0x0000000000000000        0x8 LINUX/depdom/DStringPool.o
 .group         0x0000000000000000        0x8 LINUX/depdom/DStringPool.o
 .group         0x0000000000000000        0x8 LINUX/depdom/DStringPool.o
 .group         0x0000000000000000        0x8 LINUX/depdom/DStringPool.o
 .text._ZN11xercesc_2_710XMLDeleterD2Ev
                0x0000000000000000        0xf LINUX/depdom/DStringPool.o
 .text._ZN11xercesc_2_710XMLDeleterD0Ev
                0x0000000000000000       0x1c LINUX/depdom/DStringPool.o
 .data.rel.ro._ZTVN11xercesc_2_710XMLDeleterE
                0x0000000000000000       0x20 LINUX/depdom/DStringPool.o
 .rodata._ZTSN11xercesc_2_710XMLDeleterE
                0x0000000000000000       0x1c LINUX/depdom/DStringPool.o
 .data.rel.ro._ZTIN11xercesc_2_710XMLDeleterE
                0x0000000000000000       0x10 LINUX/depdom/DStringPool.o
 .data.DW.ref.__gxx_personality_v0
                0x0000000000000000        0x8 LINUX/depdom/DStringPool.o
 .note.GNU-stack
                0x0000000000000000        0x0 LINUX/depdom/DStringPool.o
 _ZN11xercesc_2_710XMLDeleterD5Ev
                0x0000000000000000        0xc LINUX/depdom/ElementDefinitionImpl.o
 .group         0x0000000000000000        0x8 LINUX/depdom/ElementDefinitionImpl.o
 .group         0x0000000000000000        0x8 LINUX/depdom/ElementDefinitionImpl.o
 .group         0x0000000000000000        0x8 LINUX/depdom/ElementDefinitionImpl.o
 .group         0x0000000000000000        0x8 LINUX/depdom/ElementDefinitionImpl.o
 .group         0x0000000000000000        0x8 LINUX/depdom/ElementDefinitionImpl.o
 .group         0x0000000000000000        0x8 LINUX/depdom/ElementDefinitionImpl.o
 .group         0x0000000000000000        0x8 LINUX/depdom/ElementDefinitionImpl.o
 .text._ZN11xercesc_2_710XMLDeleterD2Ev
                0x0000000000000000        0xf LINUX/depdom/ElementDefinitionImpl.o
 .text._ZN11xercesc_2_710XMLDeleterD0Ev
                0x0000000000000000       0x1c LINUX/depdom/ElementDefinitionImpl.o
 .data.rel.ro._ZTVN11xercesc_2_710XMLDeleterE
                0x0000000000000000       0x20 LINUX/depdom/ElementDefinitionImpl.o
 .rodata._ZTSN11xercesc_2_710XMLDeleterE
                0x0000000000000000       0x1c LINUX/depdom/ElementDefinitionImpl.o
 .data.rel.ro._ZTIN11xercesc_2_710XMLDeleterE
                0x0000000000000000       0x10 LINUX/depdom/ElementDefinitionImpl.o
 .data.DW.ref.__gxx_personality_v0
                0x0000000000000000        0x8 LINUX/depdom/ElementDefinitionImpl.o
 .note.GNU-stack
                0x0000000000000000        0x0 LINUX/depdom/ElementDefinitionImpl.o
 _ZN11xercesc_2_710XMLDeleterD5Ev
                0x0000000000000000        0xc LINUX/depdom/ElementImpl.o
 .group         0x0000000000000000        0x8 LINUX/depdom/ElementImpl.o
 .group         0x0000000000000000        0x8 LINUX/depdom/ElementImpl.o
 .group         0x0000000000000000        0x8 LINUX/depdom/ElementImpl.o
 .group         0x0000000000000000        0x8 LINUX/depdom/ElementImpl.o
 .group         0x0000000000000000        0x8 LINUX/depdom/ElementImpl.o
 .group         0x0000000000000000        0x8 LINUX/depdom/ElementImpl.o
 .group         0x0000000000000000        0x8 LINUX/depdom/ElementImpl.o
 .text._ZN11xercesc_2_710XMLDeleterD2Ev
                0x0000000000000000        0xf LINUX/depdom/ElementImpl.o
 .text._ZN11xercesc_2_710XMLDeleterD0Ev
                0x0000000000000000       0x1c LINUX/depdom/ElementImpl.o
 .data.rel.ro._ZTVN11xercesc_2_710XMLDeleterE
                0x0000000000000000       0x20 LINUX/depdom/ElementImpl.o
 .rodata._ZTSN11xercesc_2_710XMLDeleterE
                0x0000000000000000       0x1c LINUX/depdom/ElementImpl.o
 .data.rel.ro._ZTIN11xercesc_2_710XMLDeleterE
                0x0000000000000000       0x10 LINUX/depdom/ElementImpl.o
 .data.DW.ref.__gxx_personality_v0
                0x0000000000000000        0x8 LINUX/depdom/ElementImpl.o
 .note.GNU-stack
                0x0000000000000000        0x0 LINUX/depdom/ElementImpl.o
 _ZN11xercesc_2_710XMLDeleterD5Ev
                0x0000000000000000        0xc LINUX/depdom/ElementNSImpl.o
 _ZN11xercesc_2_713ElementNSImplD5Ev
                0x0000000000000000        0xc LINUX/depdom/ElementNSImpl.o
 .group         0x0000000000000000        0x8 LINUX/depdom/ElementNSImpl.o
 .group         0x0000000000000000        0x8 LINUX/depdom/ElementNSImpl.o
 .group         0x0000000000000000        0x8 LINUX/depdom/ElementNSImpl.o
 .group         0x0000000000000000        0x8 LINUX/depdom/ElementNSImpl.o
 .group         0x0000000000000000        0x8 LINUX/depdom/ElementNSImpl.o
 .group         0x0000000000000000        0x8 LINUX/depdom/ElementNSImpl.o
 .group         0x0000000000000000        0x8 LINUX/depdom/ElementNSImpl.o
 .text._ZN11xercesc_2_710XMLDeleterD2Ev
                0x0000000000000000        0xf LINUX/depdom/ElementNSImpl.o
 .text._ZN11xercesc_2_710XMLDeleterD0Ev
                0x0000000000000000       0x1c LINUX/depdom/ElementNSImpl.o
 .data.rel.ro._ZTVN11xercesc_2_710XMLDeleterE
                0x0000000000000000       0x20 LINUX/depdom/ElementNSImpl.o
 .rodata._ZTSN11xercesc_2_710XMLDeleterE
                0x0000000000000000       0x1c LINUX/depdom/ElementNSImpl.o
 .data.rel.ro._ZTIN11xercesc_2_710XMLDeleterE
                0x0000000000000000       0x10 LINUX/depdom/ElementNSImpl.o
 .data.DW.ref.__gxx_personality_v0
                0x0000000000000000        0x8 LINUX/depdom/ElementNSImpl.o
 .note.GNU-stack
                0x0000000000000000        0x0 LINUX/depdom/ElementNSImpl.o
 _ZN11xercesc_2_710XMLDeleterD5Ev
                0x0000000000000000        0xc LINUX/depdom/EntityImpl.o
 .group         0x0000000000000000        0x8 LINUX/depdom/EntityImpl.o
 .group         0x0000000000000000        0x8 LINUX/depdom/EntityImpl.o
 .group         0x0000000000000000        0x8 LINUX/depdom/EntityImpl.o
 .group         0x0000000000000000        0x8 LINUX/depdom/EntityImpl.o
 .group         0x0000000000000000        0x8 LINUX/depdom/EntityImpl.o
 .group         0x0000000000000000        0x8 LINUX/depdom/EntityImpl.o
 .group         0x0000000000000000        0x8 LINUX/depdom/EntityImpl.o
 .text._ZN11xercesc_2_710XMLDeleterD2Ev
                0x0000000000000000        0xf LINUX/depdom/EntityImpl.o
 .text._ZN11xercesc_2_710XMLDeleterD0Ev
                0x0000000000000000       0x1c LINUX/depdom/EntityImpl.o
 .data.rel.ro._ZTVN11xercesc_2_710XMLDeleterE
                0x0000000000000000       0x20 LINUX/depdom/EntityImpl.o
 .rodata._ZTSN11xercesc_2_710XMLDeleterE
                0x0000000000000000       0x1c LINUX/depdom/EntityImpl.o
 .data.rel.ro._ZTIN11xercesc_2_710XMLDeleterE
                0x0000000000000000       0x10 LINUX/depdom/EntityImpl.o
 .data.DW.ref.__gxx_personality_v0
                0x0000000000000000        0x8 LINUX/depdom/EntityImpl.o
 .note.GNU-stack
                0x0000000000000000        0x0 LINUX/depdom/EntityImpl.o
 _ZN11xercesc_2_710XMLDeleterD5Ev
                0x0000000000000000        0xc LINUX/depdom/EntityReferenceImpl.o
 .group         0x0000000000000000        0x8 LINUX/depdom/EntityReferenceImpl.o
 .group         0x0000000000000000        0x8 LINUX/depdom/EntityReferenceImpl.o
 .group         0x0000000000000000        0x8 LINUX/depdom/EntityReferenceImpl.o
 .group         0x0000000000000000        0x8 LINUX/depdom/EntityReferenceImpl.o
 .group         0x0000000000000000        0x8 LINUX/depdom/EntityReferenceImpl.o
 .group         0x0000000000000000        0x8 LINUX/depdom/EntityReferenceImpl.o
 .group         0x0000000000000000        0x8 LINUX/depdom/EntityReferenceImpl.o
 .text._ZN11xercesc_2_710XMLDeleterD2Ev
                0x0000000000000000        0xf LINUX/depdom/EntityReferenceImpl.o
 .text._ZN11xercesc_2_710XMLDeleterD0Ev
                0x0000000000000000       0x1c LINUX/depdom/EntityReferenceImpl.o
 .data.rel.ro._ZTVN11xercesc_2_710XMLDeleterE
                0x0000000000000000       0x20 LINUX/depdom/EntityReferenceImpl.o
 .rodata._ZTSN11xercesc_2_710XMLDeleterE
                0x0000000000000000       0x1c LINUX/depdom/EntityReferenceImpl.o
 .data.rel.ro._ZTIN11xercesc_2_710XMLDeleterE
                0x0000000000000000       0x10 LINUX/depdom/EntityReferenceImpl.o
 .data.DW.ref.__gxx_personality_v0
                0x0000000000000000        0x8 LINUX/depdom/EntityReferenceImpl.o
 .note.GNU-stack
                0x0000000000000000        0x0 LINUX/depdom/EntityReferenceImpl.o
 _ZN11xercesc_2_710XMLDeleterD5Ev
                0x0000000000000000        0xc LINUX/depdom/NamedNodeMapImpl.o
 .group         0x0000000000000000        0x8 LINUX/depdom/NamedNodeMapImpl.o
 .group         0x0000000000000000        0x8 LINUX/depdom/NamedNodeMapImpl.o
 .group         0x0000000000000000        0x8 LINUX/depdom/NamedNodeMapImpl.o
 .group         0x0000000000000000        0x8 LINUX/depdom/NamedNodeMapImpl.o
 .group         0x0000000000000000        0x8 LINUX/depdom/NamedNodeMapImpl.o
 .group         0x0000000000000000        0x8 LINUX/depdom/NamedNodeMapImpl.o
 .group         0x0000000000000000        0x8 LINUX/depdom/NamedNodeMapImpl.o
 .group         0x0000000000000000        0x8 LINUX/depdom/NamedNodeMapImpl.o
 .group         0x0000000000000000        0x8 LINUX/depdom/NamedNodeMapImpl.o
 .text._ZN11xercesc_2_710XMLDeleterD2Ev
                0x0000000000000000        0xf LINUX/depdom/NamedNodeMapImpl.o
 .text._ZN11xercesc_2_710XMLDeleterD0Ev
                0x0000000000000000       0x1c LINUX/depdom/NamedNodeMapImpl.o
 .data.rel.ro._ZTVN11xercesc_2_710XMLDeleterE
                0x0000000000000000       0x20 LINUX/depdom/NamedNodeMapImpl.o
 .rodata._ZTSN11xercesc_2_710XMLDeleterE
                0x0000000000000000       0x1c LINUX/depdom/NamedNodeMapImpl.o
 .data.rel.ro._ZTIN11xercesc_2_710XMLDeleterE
                0x0000000000000000       0x10 LINUX/depdom/NamedNodeMapImpl.o
 .data.rel.ro._ZTIN11xercesc_2_77XMemoryE
                0x0000000000000000       0x10 LINUX/depdom/NamedNodeMapImpl.o
 .rodata._ZTSN11xercesc_2_77XMemoryE
                0x0000000000000000       0x18 LINUX/depdom/NamedNodeMapImpl.o
 .data.DW.ref.__gxx_personality_v0
                0x0000000000000000        0x8 LINUX/depdom/NamedNodeMapImpl.o
 .note.GNU-stack
                0x0000000000000000        0x0 LINUX/depdom/NamedNodeMapImpl.o
 _ZN11xercesc_2_710XMLDeleterD5Ev
                0x0000000000000000        0xc LINUX/depdom/NodeIDMap.o
 .group         0x0000000000000000        0x8 LINUX/depdom/NodeIDMap.o
 _ZN11xercesc_2_716RuntimeExceptionD5Ev
                0x0000000000000000        0xc LINUX/depdom/NodeIDMap.o
 .group         0x0000000000000000        0x8 LINUX/depdom/NodeIDMap.o
 .group         0x0000000000000000        0x8 LINUX/depdom/NodeIDMap.o
 .group         0x0000000000000000        0x8 LINUX/depdom/NodeIDMap.o
 .group         0x0000000000000000        0x8 LINUX/depdom/NodeIDMap.o
 .group         0x0000000000000000        0x8 LINUX/depdom/NodeIDMap.o
 .group         0x0000000000000000        0x8 LINUX/depdom/NodeIDMap.o
 .group         0x0000000000000000        0x8 LINUX/depdom/NodeIDMap.o
 .group         0x0000000000000000        0x8 LINUX/depdom/NodeIDMap.o
 .group         0x0000000000000000        0x8 LINUX/depdom/NodeIDMap.o
 .group         0x0000000000000000        0x8 LINUX/depdom/NodeIDMap.o
 .group         0x0000000000000000        0x8 LINUX/depdom/NodeIDMap.o
 .group         0x0000000000000000        0x8 LINUX/depdom/NodeIDMap.o
 .group         0x0000000000000000        0x8 LINUX/depdom/NodeIDMap.o
 .text._ZN11xercesc_2_710XMLDeleterD2Ev
                0x0000000000000000        0xf LINUX/depdom/NodeIDMap.o
 .text._ZN11xercesc_2_710XMLDeleterD0Ev
                0x0000000000000000       0x1c LINUX/depdom/NodeIDMap.o
 .data.rel.ro._ZTVN11xercesc_2_710XMLDeleterE
                0x0000000000000000       0x20 LINUX/depdom/NodeIDMap.o
 .rodata._ZTSN11xercesc_2_710XMLDeleterE
                0x0000000000000000       0x1c LINUX/depdom/NodeIDMap.o
 .data.rel.ro._ZTIN11xercesc_2_710XMLDeleterE
                0x0000000000000000       0x10 LINUX/depdom/NodeIDMap.o
 .data.rel.ro._ZTIN11xercesc_2_77XMemoryE
                0x0000000000000000       0x10 LINUX/depdom/NodeIDMap.o
 .rodata._ZTSN11xercesc_2_77XMemoryE
                0x0000000000000000       0x18 LINUX/depdom/NodeIDMap.o
 .data.DW.ref.__gxx_personality_v0
                0x0000000000000000        0x8 LINUX/depdom/NodeIDMap.o
 .note.GNU-stack
                0x0000000000000000        0x0 LINUX/depdom/NodeIDMap.o
 _ZN11xercesc_2_710XMLDeleterD5Ev
                0x0000000000000000        0xc LINUX/depdom/NodeImpl.o
 .group         0x0000000000000000        0x8 LINUX/depdom/NodeImpl.o
 .group         0x0000000000000000        0x8 LINUX/depdom/NodeImpl.o
 .group         0x0000000000000000        0x8 LINUX/depdom/NodeImpl.o
 .group         0x0000000000000000        0x8 LINUX/depdom/NodeImpl.o
 .group         0x0000000000000000        0x8 LINUX/depdom/NodeImpl.o
 .group         0x0000000000000000        0x8 LINUX/depdom/NodeImpl.o
 .group         0x0000000000000000        0x8 LINUX/depdom/NodeImpl.o
 .text._ZN11xercesc_2_710XMLDeleterD2Ev
                0x0000000000000000        0xf LINUX/depdom/NodeImpl.o
 .text._ZN11xercesc_2_710XMLDeleterD0Ev
                0x0000000000000000       0x1c LINUX/depdom/NodeImpl.o
 .data.rel.ro._ZTVN11xercesc_2_710XMLDeleterE
                0x0000000000000000       0x20 LINUX/depdom/NodeImpl.o
 .rodata._ZTSN11xercesc_2_710XMLDeleterE
                0x0000000000000000       0x1c LINUX/depdom/NodeImpl.o
 .data.rel.ro._ZTIN11xercesc_2_710XMLDeleterE
                0x0000000000000000       0x10 LINUX/depdom/NodeImpl.o
 .data.DW.ref.__gxx_personality_v0
                0x0000000000000000        0x8 LINUX/depdom/NodeImpl.o
 .note.GNU-stack
                0x0000000000000000        0x0 LINUX/depdom/NodeImpl.o
 _ZN11xercesc_2_710XMLDeleterD5Ev
                0x0000000000000000        0xc LINUX/depdom/NodeIteratorImpl.o
 .group         0x0000000000000000        0x8 LINUX/depdom/NodeIteratorImpl.o
 .group         0x0000000000000000        0x8 LINUX/depdom/NodeIteratorImpl.o
 .group         0x0000000000000000        0x8 LINUX/depdom/NodeIteratorImpl.o
 _ZN11xercesc_2_730ArrayIndexOutOfBoundsExceptionD5Ev
                0x0000000000000000        0xc LINUX/depdom/NodeIteratorImpl.o
 .group         0x0000000000000000        0x8 LINUX/depdom/NodeIteratorImpl.o
 .group         0x0000000000000000        0x8 LINUX/depdom/NodeIteratorImpl.o
 .group         0x0000000000000000        0x8 LINUX/depdom/NodeIteratorImpl.o
 .group         0x0000000000000000        0x8 LINUX/depdom/NodeIteratorImpl.o
 .group         0x0000000000000000        0x8 LINUX/depdom/NodeIteratorImpl.o
 .group         0x0000000000000000        0x8 LINUX/depdom/NodeIteratorImpl.o
 .group         0x0000000000000000        0x8 LINUX/depdom/NodeIteratorImpl.o
 .group         0x0000000000000000        0x8 LINUX/depdom/NodeIteratorImpl.o
 .group         0x0000000000000000        0x8 LINUX/depdom/NodeIteratorImpl.o
 .group         0x0000000000000000        0x8 LINUX/depdom/NodeIteratorImpl.o
 .group         0x0000000000000000        0x8 LINUX/depdom/NodeIteratorImpl.o
 .text._ZN11xercesc_2_710XMLDeleterD2Ev
                0x0000000000000000        0xf LINUX/depdom/NodeIteratorImpl.o
 .text._ZNK11xercesc_2_730ArrayIndexOutOfBoundsException7getTypeEv
                0x0000000000000000        0x8 LINUX/depdom/NodeIteratorImpl.o
 .text._ZN11xercesc_2_710XMLDeleterD0Ev
                0x0000000000000000       0x1c LINUX/depdom/NodeIteratorImpl.o
 .text._ZN11xercesc_2_730ArrayIndexOutOfBoundsExceptionD2Ev
                0x0000000000000000       0x1c LINUX/depdom/NodeIteratorImpl.o
 .text._ZNK11xercesc_2_730ArrayIndexOutOfBoundsException9duplicateEv
                0x0000000000000000       0x6e LINUX/depdom/NodeIteratorImpl.o
 .text._ZN11xercesc_2_730ArrayIndexOutOfBoundsExceptionD0Ev
                0x0000000000000000       0x21 LINUX/depdom/NodeIteratorImpl.o
 .data.rel.ro._ZTVN11xercesc_2_710XMLDeleterE
                0x0000000000000000       0x20 LINUX/depdom/NodeIteratorImpl.o
 .rodata._ZTSN11xercesc_2_710XMLDeleterE
                0x0000000000000000       0x1c LINUX/depdom/NodeIteratorImpl.o
 .data.rel.ro._ZTIN11xercesc_2_710XMLDeleterE
                0x0000000000000000       0x10 LINUX/depdom/NodeIteratorImpl.o
 .data.rel.ro._ZTIN11xercesc_2_730ArrayIndexOutOfBoundsExceptionE
                0x0000000000000000       0x18 LINUX/depdom/NodeIteratorImpl.o
 .rodata._ZTSN11xercesc_2_730ArrayIndexOutOfBoundsExceptionE
                0x0000000000000000       0x30 LINUX/depdom/NodeIteratorImpl.o
 .data.rel.ro._ZTVN11xercesc_2_730ArrayIndexOutOfBoundsExceptionE
                0x0000000000000000       0x30 LINUX/depdom/NodeIteratorImpl.o
 .data.DW.ref.__gxx_personality_v0
                0x0000000000000000        0x8 LINUX/depdom/NodeIteratorImpl.o
 .note.GNU-stack
                0x0000000000000000        0x0 LINUX/depdom/NodeIteratorImpl.o
 .group         0x0000000000000000        0x8 LINUX/depdom/NodeListImpl.o
 .group         0x0000000000000000        0x8 LINUX/depdom/NodeListImpl.o
 .group         0x0000000000000000        0x8 LINUX/depdom/NodeListImpl.o
 .group         0x0000000000000000        0x8 LINUX/depdom/NodeListImpl.o
 .data.DW.ref.__gxx_personality_v0
                0x0000000000000000        0x8 LINUX/depdom/NodeListImpl.o
 .note.GNU-stack
                0x0000000000000000        0x0 LINUX/depdom/NodeListImpl.o
 _ZN11xercesc_2_710XMLDeleterD5Ev
                0x0000000000000000        0xc LINUX/depdom/NodeVector.o
 .group         0x0000000000000000        0x8 LINUX/depdom/NodeVector.o
 .group         0x0000000000000000        0x8 LINUX/depdom/NodeVector.o
 .group         0x0000000000000000        0x8 LINUX/depdom/NodeVector.o
 .group         0x0000000000000000        0x8 LINUX/depdom/NodeVector.o
 .text._ZN11xercesc_2_710XMLDeleterD2Ev
                0x0000000000000000        0xf LINUX/depdom/NodeVector.o
 .text._ZN11xercesc_2_710XMLDeleterD0Ev
                0x0000000000000000       0x1c LINUX/depdom/NodeVector.o
 .data.rel.ro._ZTVN11xercesc_2_710XMLDeleterE
                0x0000000000000000       0x20 LINUX/depdom/NodeVector.o
 .rodata._ZTSN11xercesc_2_710XMLDeleterE
                0x0000000000000000       0x1c LINUX/depdom/NodeVector.o
 .data.rel.ro._ZTIN11xercesc_2_710XMLDeleterE
                0x0000000000000000       0x10 LINUX/depdom/NodeVector.o
 .data.DW.ref.__gxx_personality_v0
                0x0000000000000000        0x8 LINUX/depdom/NodeVector.o
 .note.GNU-stack
                0x0000000000000000        0x0 LINUX/depdom/NodeVector.o
 .group         0x0000000000000000        0x8 LINUX/depdom/NotationImpl.o
 .group         0x0000000000000000        0x8 LINUX/depdom/NotationImpl.o
 .group         0x0000000000000000        0x8 LINUX/depdom/NotationImpl.o
 .group         0x0000000000000000        0x8 LINUX/depdom/NotationImpl.o
 .data.DW.ref.__gxx_personality_v0
                0x0000000000000000        0x8 LINUX/depdom/NotationImpl.o
 .note.GNU-stack
                0x0000000000000000        0x0 LINUX/depdom/NotationImpl.o
 .group         0x0000000000000000        0x8 LINUX/depdom/ParentNode.o
 _ZN11xercesc_2_710XMLDeleterD5Ev
                0x0000000000000000        0xc LINUX/depdom/ParentNode.o
 .group         0x0000000000000000        0x8 LINUX/depdom/ParentNode.o
 _ZN11xercesc_2_710ParentNodeD5Ev
                0x0000000000000000        0xc LINUX/depdom/ParentNode.o
 .group         0x0000000000000000        0x8 LINUX/depdom/ParentNode.o
 _ZN11xercesc_2_730ArrayIndexOutOfBoundsExceptionD5Ev
                0x0000000000000000        0xc LINUX/depdom/ParentNode.o
 .group         0x0000000000000000        0x8 LINUX/depdom/ParentNode.o
 .group         0x0000000000000000        0x8 LINUX/depdom/ParentNode.o
 .group         0x0000000000000000        0x8 LINUX/depdom/ParentNode.o
 .group         0x0000000000000000        0x8 LINUX/depdom/ParentNode.o
 .group         0x0000000000000000        0x8 LINUX/depdom/ParentNode.o
 .group         0x0000000000000000        0x8 LINUX/depdom/ParentNode.o
 .group         0x0000000000000000        0x8 LINUX/depdom/ParentNode.o
 .group         0x0000000000000000        0x8 LINUX/depdom/ParentNode.o
 .group         0x0000000000000000        0x8 LINUX/depdom/ParentNode.o
 .group         0x0000000000000000        0x8 LINUX/depdom/ParentNode.o
 .group         0x0000000000000000        0x8 LINUX/depdom/ParentNode.o
 .text._ZNK11xercesc_2_730ArrayIndexOutOfBoundsException7getTypeEv
                0x0000000000000000        0x8 LINUX/depdom/ParentNode.o
 .text._ZN11xercesc_2_710XMLDeleterD2Ev
                0x0000000000000000        0xf LINUX/depdom/ParentNode.o
 .text._ZNK11xercesc_2_715BaseRefVectorOfINS_9RangeImplEE4sizeEv
                0x0000000000000000        0x4 LINUX/depdom/ParentNode.o
 .text._ZN11xercesc_2_710XMLDeleterD0Ev
                0x0000000000000000       0x1c LINUX/depdom/ParentNode.o
 .text._ZN11xercesc_2_715BaseRefVectorOfINS_9RangeImplEE9elementAtEj
                0x0000000000000000       0xbf LINUX/depdom/ParentNode.o
 .text._ZN11xercesc_2_730ArrayIndexOutOfBoundsExceptionD2Ev
                0x0000000000000000       0x1c LINUX/depdom/ParentNode.o
 .text._ZNK11xercesc_2_730ArrayIndexOutOfBoundsException9duplicateEv
                0x0000000000000000       0x6e LINUX/depdom/ParentNode.o
 .text._ZN11xercesc_2_730ArrayIndexOutOfBoundsExceptionD0Ev
                0x0000000000000000       0x21 LINUX/depdom/ParentNode.o
 .data.rel.ro._ZTVN11xercesc_2_710XMLDeleterE
                0x0000000000000000       0x20 LINUX/depdom/ParentNode.o
 .rodata._ZTSN11xercesc_2_710XMLDeleterE
                0x0000000000000000       0x1c LINUX/depdom/ParentNode.o
 .data.rel.ro._ZTIN11xercesc_2_710XMLDeleterE
                0x0000000000000000       0x10 LINUX/depdom/ParentNode.o
 .data.rel.ro._ZTIN11xercesc_2_730ArrayIndexOutOfBoundsExceptionE
                0x0000000000000000       0x18 LINUX/depdom/ParentNode.o
 .rodata._ZTSN11xercesc_2_730ArrayIndexOutOfBoundsExceptionE
                0x0000000000000000       0x30 LINUX/depdom/ParentNode.o
 .data.rel.ro._ZTVN11xercesc_2_730ArrayIndexOutOfBoundsExceptionE
                0x0000000000000000       0x30 LINUX/depdom/ParentNode.o
 .data.DW.ref.__gxx_personality_v0
                0x0000000000000000        0x8 LINUX/depdom/ParentNode.o
 .note.GNU-stack
                0x0000000000000000        0x0 LINUX/depdom/ParentNode.o
 _ZN11xercesc_2_710XMLDeleterD5Ev
                0x0000000000000000        0xc LINUX/depdom/ProcessingInstructionImpl.o
 .group         0x0000000000000000        0x8 LINUX/depdom/ProcessingInstructionImpl.o
 .group         0x0000000000000000        0x8 LINUX/depdom/ProcessingInstructionImpl.o
 .group         0x0000000000000000        0x8 LINUX/depdom/ProcessingInstructionImpl.o
 .group         0x0000000000000000        0x8 LINUX/depdom/ProcessingInstructionImpl.o
 .group         0x0000000000000000        0x8 LINUX/depdom/ProcessingInstructionImpl.o
 .group         0x0000000000000000        0x8 LINUX/depdom/ProcessingInstructionImpl.o
 .group         0x0000000000000000        0x8 LINUX/depdom/ProcessingInstructionImpl.o
 .text._ZN11xercesc_2_710XMLDeleterD2Ev
                0x0000000000000000        0xf LINUX/depdom/ProcessingInstructionImpl.o
 .text._ZN11xercesc_2_710XMLDeleterD0Ev
                0x0000000000000000       0x1c LINUX/depdom/ProcessingInstructionImpl.o
 .data.rel.ro._ZTVN11xercesc_2_710XMLDeleterE
                0x0000000000000000       0x20 LINUX/depdom/ProcessingInstructionImpl.o
 .rodata._ZTSN11xercesc_2_710XMLDeleterE
                0x0000000000000000       0x1c LINUX/depdom/ProcessingInstructionImpl.o
 .data.rel.ro._ZTIN11xercesc_2_710XMLDeleterE
                0x0000000000000000       0x10 LINUX/depdom/ProcessingInstructionImpl.o
 .data.DW.ref.__gxx_personality_v0
                0x0000000000000000        0x8 LINUX/depdom/ProcessingInstructionImpl.o
 .note.GNU-stack
                0x0000000000000000        0x0 LINUX/depdom/ProcessingInstructionImpl.o
 .group         0x0000000000000000        0x8 LINUX/depdom/RangeImpl.o
 _ZN11xercesc_2_710XMLDeleterD5Ev
                0x0000000000000000        0xc LINUX/depdom/RangeImpl.o
 .group         0x0000000000000000        0x8 LINUX/depdom/RangeImpl.o
 .group         0x0000000000000000        0x8 LINUX/depdom/RangeImpl.o
 _ZN11xercesc_2_715BaseRefVectorOfINS_8NodeImplEEC5EjbPNS_13MemoryManagerE
                0x0000000000000000        0x8 LINUX/depdom/RangeImpl.o
 _ZN11xercesc_2_711RefVectorOfINS_8NodeImplEEC5EjbPNS_13MemoryManagerE
                0x0000000000000000        0x8 LINUX/depdom/RangeImpl.o
 _ZN11xercesc_2_715BaseRefVectorOfINS_8NodeImplEED5Ev
                0x0000000000000000        0xc LINUX/depdom/RangeImpl.o
 .group         0x0000000000000000        0x8 LINUX/depdom/RangeImpl.o
 .group         0x0000000000000000        0x8 LINUX/depdom/RangeImpl.o
 .group         0x0000000000000000        0x8 LINUX/depdom/RangeImpl.o
 .group         0x0000000000000000        0x8 LINUX/depdom/RangeImpl.o
 .group         0x0000000000000000        0x8 LINUX/depdom/RangeImpl.o
 _ZN11xercesc_2_711RefVectorOfINS_8NodeImplEED5Ev
                0x0000000000000000        0xc LINUX/depdom/RangeImpl.o
 .group         0x0000000000000000        0x8 LINUX/depdom/RangeImpl.o
 _ZN11xercesc_2_730ArrayIndexOutOfBoundsExceptionD5Ev
                0x0000000000000000        0xc LINUX/depdom/RangeImpl.o
 .group         0x0000000000000000        0x8 LINUX/depdom/RangeImpl.o
 .group         0x0000000000000000        0x8 LINUX/depdom/RangeImpl.o
 .group         0x0000000000000000        0x8 LINUX/depdom/RangeImpl.o
 .group         0x0000000000000000        0x8 LINUX/depdom/RangeImpl.o
 .group         0x0000000000000000        0x8 LINUX/depdom/RangeImpl.o
 .group         0x0000000000000000        0x8 LINUX/depdom/RangeImpl.o
 .group         0x0000000000000000        0x8 LINUX/depdom/RangeImpl.o
 .group         0x0000000000000000        0x8 LINUX/depdom/RangeImpl.o
 .group         0x0000000000000000        0x8 LINUX/depdom/RangeImpl.o
 .group         0x0000000000000000        0x8 LINUX/depdom/RangeImpl.o
 .group         0x0000000000000000        0x8 LINUX/depdom/RangeImpl.o
 .group         0x0000000000000000        0x8 LINUX/depdom/RangeImpl.o
 .group         0x0000000000000000        0x8 LINUX/depdom/RangeImpl.o
 .group         0x0000000000000000        0x8 LINUX/depdom/RangeImpl.o
 .group         0x0000000000000000        0x8 LINUX/depdom/RangeImpl.o
 .group         0x0000000000000000        0x8 LINUX/depdom/RangeImpl.o
 .group         0x0000000000000000        0x8 LINUX/depdom/RangeImpl.o
 .group         0x0000000000000000        0x8 LINUX/depdom/RangeImpl.o
 .group         0x0000000000000000        0x8 LINUX/depdom/RangeImpl.o
 .group         0x0000000000000000        0x8 LINUX/depdom/RangeImpl.o
 .group         0x0000000000000000        0x8 LINUX/depdom/RangeImpl.o
 .group         0x0000000000000000        0x8 LINUX/depdom/RangeImpl.o
 .text._ZNK11xercesc_2_730ArrayIndexOutOfBoundsException7getTypeEv
                0x0000000000000000        0x8 LINUX/depdom/RangeImpl.o
 .text._ZN11xercesc_2_710XMLDeleterD2Ev
                0x0000000000000000        0xf LINUX/depdom/RangeImpl.o
 .text._ZNK11xercesc_2_715BaseRefVectorOfINS_9RangeImplEE4sizeEv
                0x0000000000000000        0x4 LINUX/depdom/RangeImpl.o
 .text._ZN11xercesc_2_710XMLDeleterD0Ev
                0x0000000000000000       0x1c LINUX/depdom/RangeImpl.o
 .text._ZN11xercesc_2_730ArrayIndexOutOfBoundsExceptionD2Ev
                0x0000000000000000       0x1c LINUX/depdom/RangeImpl.o
 .text._ZNK11xercesc_2_730ArrayIndexOutOfBoundsException9duplicateEv
                0x0000000000000000       0x6e LINUX/depdom/RangeImpl.o
 .text._ZN11xercesc_2_730ArrayIndexOutOfBoundsExceptionD0Ev
                0x0000000000000000       0x21 LINUX/depdom/RangeImpl.o
 .text._ZN11xercesc_2_715BaseRefVectorOfINS_9RangeImplEE9elementAtEj
                0x0000000000000000       0xbf LINUX/depdom/RangeImpl.o
 .data.rel.ro._ZTVN11xercesc_2_710XMLDeleterE
                0x0000000000000000       0x20 LINUX/depdom/RangeImpl.o
 .rodata._ZTSN11xercesc_2_710XMLDeleterE
                0x0000000000000000       0x1c LINUX/depdom/RangeImpl.o
 .data.rel.ro._ZTIN11xercesc_2_710XMLDeleterE
                0x0000000000000000       0x10 LINUX/depdom/RangeImpl.o
 .data.rel.ro._ZTIN11xercesc_2_77XMemoryE
                0x0000000000000000       0x10 LINUX/depdom/RangeImpl.o
 .rodata._ZTSN11xercesc_2_77XMemoryE
                0x0000000000000000       0x18 LINUX/depdom/RangeImpl.o
 .data.rel.ro._ZTIN11xercesc_2_730ArrayIndexOutOfBoundsExceptionE
                0x0000000000000000       0x18 LINUX/depdom/RangeImpl.o
 .rodata._ZTSN11xercesc_2_730ArrayIndexOutOfBoundsExceptionE
                0x0000000000000000       0x30 LINUX/depdom/RangeImpl.o
 .data.rel.ro._ZTVN11xercesc_2_730ArrayIndexOutOfBoundsExceptionE
                0x0000000000000000       0x30 LINUX/depdom/RangeImpl.o
 .data.DW.ref.__gxx_personality_v0
                0x0000000000000000        0x8 LINUX/depdom/RangeImpl.o
 .note.GNU-stack
                0x0000000000000000        0x0 LINUX/depdom/RangeImpl.o
 .group         0x0000000000000000        0x8 LINUX/depdom/RefCountedImpl.o
 .group         0x0000000000000000        0x8 LINUX/depdom/RefCountedImpl.o
 .group         0x0000000000000000        0x8 LINUX/depdom/RefCountedImpl.o
 .group         0x0000000000000000        0x8 LINUX/depdom/RefCountedImpl.o
 .group         0x0000000000000000        0x8 LINUX/depdom/RefCountedImpl.o
 .group         0x0000000000000000        0x8 LINUX/depdom/RefCountedImpl.o
 .data.rel.ro._ZTIN11xercesc_2_77XMemoryE
                0x0000000000000000       0x10 LINUX/depdom/RefCountedImpl.o
 .rodata._ZTSN11xercesc_2_77XMemoryE
                0x0000000000000000       0x18 LINUX/depdom/RefCountedImpl.o
 .data.DW.ref.__gxx_personality_v0
                0x0000000000000000        0x8 LINUX/depdom/RefCountedImpl.o
 .note.GNU-stack
                0x0000000000000000        0x0 LINUX/depdom/RefCountedImpl.o
 .group         0x0000000000000000        0x8 LINUX/depdom/TextImpl.o
 _ZN11xercesc_2_710XMLDeleterD5Ev
                0x0000000000000000        0xc LINUX/depdom/TextImpl.o
 .group         0x0000000000000000        0x8 LINUX/depdom/TextImpl.o
 .group         0x0000000000000000        0x8 LINUX/depdom/TextImpl.o
 _ZN11xercesc_2_730ArrayIndexOutOfBoundsExceptionD5Ev
                0x0000000000000000        0xc LINUX/depdom/TextImpl.o
 .group         0x0000000000000000        0x8 LINUX/depdom/TextImpl.o
 .group         0x0000000000000000        0x8 LINUX/depdom/TextImpl.o
 .group         0x0000000000000000        0x8 LINUX/depdom/TextImpl.o
 .group         0x0000000000000000        0x8 LINUX/depdom/TextImpl.o
 .group         0x0000000000000000        0x8 LINUX/depdom/TextImpl.o
 .group         0x0000000000000000        0x8 LINUX/depdom/TextImpl.o
 .group         0x0000000000000000        0x8 LINUX/depdom/TextImpl.o
 .group         0x0000000000000000        0x8 LINUX/depdom/TextImpl.o
 .group         0x0000000000000000        0x8 LINUX/depdom/TextImpl.o
 .group         0x0000000000000000        0x8 LINUX/depdom/TextImpl.o
 .group         0x0000000000000000        0x8 LINUX/depdom/TextImpl.o
 .text._ZNK11xercesc_2_730ArrayIndexOutOfBoundsException7getTypeEv
                0x0000000000000000        0x8 LINUX/depdom/TextImpl.o
 .text._ZN11xercesc_2_710XMLDeleterD2Ev
                0x0000000000000000        0xf LINUX/depdom/TextImpl.o
 .text._ZNK11xercesc_2_715BaseRefVectorOfINS_9RangeImplEE4sizeEv
                0x0000000000000000        0x4 LINUX/depdom/TextImpl.o
 .text._ZN11xercesc_2_710XMLDeleterD0Ev
                0x0000000000000000       0x1c LINUX/depdom/TextImpl.o
 .text._ZN11xercesc_2_715BaseRefVectorOfINS_9RangeImplEE9elementAtEj
                0x0000000000000000       0xbf LINUX/depdom/TextImpl.o
 .text._ZN11xercesc_2_730ArrayIndexOutOfBoundsExceptionD2Ev
                0x0000000000000000       0x1c LINUX/depdom/TextImpl.o
 .text._ZNK11xercesc_2_730ArrayIndexOutOfBoundsException9duplicateEv
                0x0000000000000000       0x6e LINUX/depdom/TextImpl.o
 .text._ZN11xercesc_2_730ArrayIndexOutOfBoundsExceptionD0Ev
                0x0000000000000000       0x21 LINUX/depdom/TextImpl.o
 .data.rel.ro._ZTVN11xercesc_2_710XMLDeleterE
                0x0000000000000000       0x20 LINUX/depdom/TextImpl.o
 .rodata._ZTSN11xercesc_2_710XMLDeleterE
                0x0000000000000000       0x1c LINUX/depdom/TextImpl.o
 .data.rel.ro._ZTIN11xercesc_2_710XMLDeleterE
                0x0000000000000000       0x10 LINUX/depdom/TextImpl.o
 .data.rel.ro._ZTIN11xercesc_2_730ArrayIndexOutOfBoundsExceptionE
                0x0000000000000000       0x18 LINUX/depdom/TextImpl.o
 .rodata._ZTSN11xercesc_2_730ArrayIndexOutOfBoundsExceptionE
                0x0000000000000000       0x30 LINUX/depdom/TextImpl.o
 .data.rel.ro._ZTVN11xercesc_2_730ArrayIndexOutOfBoundsExceptionE
                0x0000000000000000       0x30 LINUX/depdom/TextImpl.o
 .data.DW.ref.__gxx_personality_v0
                0x0000000000000000        0x8 LINUX/depdom/TextImpl.o
 .note.GNU-stack
                0x0000000000000000        0x0 LINUX/depdom/TextImpl.o
 _ZN11xercesc_2_710XMLDeleterD5Ev
                0x0000000000000000        0xc LINUX/depdom/TreeWalkerImpl.o
 .group         0x0000000000000000        0x8 LINUX/depdom/TreeWalkerImpl.o
 .group         0x0000000000000000        0x8 LINUX/depdom/TreeWalkerImpl.o
 _ZN11xercesc_2_714TreeWalkerImplD5Ev
                0x0000000000000000        0xc LINUX/depdom/TreeWalkerImpl.o
 .group         0x0000000000000000        0x8 LINUX/depdom/TreeWalkerImpl.o
 _ZN11xercesc_2_730ArrayIndexOutOfBoundsExceptionD5Ev
                0x0000000000000000        0xc LINUX/depdom/TreeWalkerImpl.o
 .group         0x0000000000000000        0x8 LINUX/depdom/TreeWalkerImpl.o
 .group         0x0000000000000000        0x8 LINUX/depdom/TreeWalkerImpl.o
 .group         0x0000000000000000        0x8 LINUX/depdom/TreeWalkerImpl.o
 .group         0x0000000000000000        0x8 LINUX/depdom/TreeWalkerImpl.o
 .group         0x0000000000000000        0x8 LINUX/depdom/TreeWalkerImpl.o
 .group         0x0000000000000000        0x8 LINUX/depdom/TreeWalkerImpl.o
 .group         0x0000000000000000        0x8 LINUX/depdom/TreeWalkerImpl.o
 .group         0x0000000000000000        0x8 LINUX/depdom/TreeWalkerImpl.o
 .group         0x0000000000000000        0x8 LINUX/depdom/TreeWalkerImpl.o
 .group         0x0000000000000000        0x8 LINUX/depdom/TreeWalkerImpl.o
 .group         0x0000000000000000        0x8 LINUX/depdom/TreeWalkerImpl.o
 .text._ZN11xercesc_2_710XMLDeleterD2Ev
                0x0000000000000000        0xf LINUX/depdom/TreeWalkerImpl.o
 .text._ZNK11xercesc_2_730ArrayIndexOutOfBoundsException7getTypeEv
                0x0000000000000000        0x8 LINUX/depdom/TreeWalkerImpl.o
 .text._ZN11xercesc_2_710XMLDeleterD0Ev
                0x0000000000000000       0x1c LINUX/depdom/TreeWalkerImpl.o
 .text._ZN11xercesc_2_730ArrayIndexOutOfBoundsExceptionD2Ev
                0x0000000000000000       0x1c LINUX/depdom/TreeWalkerImpl.o
 .text._ZNK11xercesc_2_730ArrayIndexOutOfBoundsException9duplicateEv
                0x0000000000000000       0x6e LINUX/depdom/TreeWalkerImpl.o
 .text._ZN11xercesc_2_730ArrayIndexOutOfBoundsExceptionD0Ev
                0x0000000000000000       0x21 LINUX/depdom/TreeWalkerImpl.o
 .data.rel.ro._ZTVN11xercesc_2_710XMLDeleterE
                0x0000000000000000       0x20 LINUX/depdom/TreeWalkerImpl.o
 .rodata._ZTSN11xercesc_2_710XMLDeleterE
                0x0000000000000000       0x1c LINUX/depdom/TreeWalkerImpl.o
 .data.rel.ro._ZTIN11xercesc_2_710XMLDeleterE
                0x0000000000000000       0x10 LINUX/depdom/TreeWalkerImpl.o
 .data.rel.ro._ZTIN11xercesc_2_730ArrayIndexOutOfBoundsExceptionE
                0x0000000000000000       0x18 LINUX/depdom/TreeWalkerImpl.o
 .rodata._ZTSN11xercesc_2_730ArrayIndexOutOfBoundsExceptionE
                0x0000000000000000       0x30 LINUX/depdom/TreeWalkerImpl.o
 .data.rel.ro._ZTVN11xercesc_2_730ArrayIndexOutOfBoundsExceptionE
                0x0000000000000000       0x30 LINUX/depdom/TreeWalkerImpl.o
 .data.DW.ref.__gxx_personality_v0
                0x0000000000000000        0x8 LINUX/depdom/TreeWalkerImpl.o
 .note.GNU-stack
                0x0000000000000000        0x0 LINUX/depdom/TreeWalkerImpl.o
 _ZN11xercesc_2_710XMLDeleterD5Ev
                0x0000000000000000        0xc LINUX/depdom/XMLDeclImpl.o
 .group         0x0000000000000000        0x8 LINUX/depdom/XMLDeclImpl.o
 .group         0x0000000000000000        0x8 LINUX/depdom/XMLDeclImpl.o
 .group         0x0000000000000000        0x8 LINUX/depdom/XMLDeclImpl.o
 .group         0x0000000000000000        0x8 LINUX/depdom/XMLDeclImpl.o
 .group         0x0000000000000000        0x8 LINUX/depdom/XMLDeclImpl.o
 .group         0x0000000000000000        0x8 LINUX/depdom/XMLDeclImpl.o
 .group         0x0000000000000000        0x8 LINUX/depdom/XMLDeclImpl.o
 .text._ZN11xercesc_2_710XMLDeleterD2Ev
                0x0000000000000000        0xf LINUX/depdom/XMLDeclImpl.o
 .text._ZN11xercesc_2_710XMLDeleterD0Ev
                0x0000000000000000       0x1c LINUX/depdom/XMLDeclImpl.o
 .data.rel.ro._ZTVN11xercesc_2_710XMLDeleterE
                0x0000000000000000       0x20 LINUX/depdom/XMLDeclImpl.o
 .rodata._ZTSN11xercesc_2_710XMLDeleterE
                0x0000000000000000       0x1c LINUX/depdom/XMLDeclImpl.o
 .data.rel.ro._ZTIN11xercesc_2_710XMLDeleterE
                0x0000000000000000       0x10 LINUX/depdom/XMLDeclImpl.o
 .data.DW.ref.__gxx_personality_v0
                0x0000000000000000        0x8 LINUX/depdom/XMLDeclImpl.o
 .note.GNU-stack
                0x0000000000000000        0x0 LINUX/depdom/XMLDeclImpl.o
 .note.GNU-stack
                0x0000000000000000        0x0 /usr/lib/gcc/x86_64-redhat-linux/4.4.7/crtendS.o
 .note.GNU-stack
                0x0000000000000000        0x0 /usr/lib/gcc/x86_64-redhat-linux/4.4.7/../../../../lib64/crtn.o

Memory Configuration

Name             Origin             Length             Attributes
*default*        0x0000000000000000 0xffffffffffffffff

Linker script and memory map

LOAD /usr/lib/gcc/x86_64-redhat-linux/4.4.7/../../../../lib64/crti.o
LOAD /usr/lib/gcc/x86_64-redhat-linux/4.4.7/crtbeginS.o
LOAD LINUX/depdom/AttrImpl.o
LOAD LINUX/depdom/AttrMapImpl.o
LOAD LINUX/depdom/AttrNSImpl.o
LOAD LINUX/depdom/CDATASectionImpl.o
LOAD LINUX/depdom/CharacterDataImpl.o
LOAD LINUX/depdom/ChildNode.o
LOAD LINUX/depdom/CommentImpl.o
LOAD LINUX/depdom/DeepNodeListImpl.o
LOAD LINUX/depdom/DocumentFragmentImpl.o
LOAD LINUX/depdom/DocumentImpl.o
LOAD LINUX/depdom/DocumentTypeImpl.o
LOAD LINUX/depdom/DOM_Attr.o
LOAD LINUX/depdom/DOM_CDATASection.o
LOAD LINUX/depdom/DOM_CharacterData.o
LOAD LINUX/depdom/DOM_Comment.o
LOAD LINUX/depdom/DOM_DocumentFragment.o
LOAD LINUX/depdom/DOM_Document.o
LOAD LINUX/depdom/DOM_DocumentType.o
LOAD LINUX/depdom/DOM_DOMException.o
LOAD LINUX/depdom/DOM_DOMImplementation.o
LOAD LINUX/depdom/DOM_Element.o
LOAD LINUX/depdom/DOM_Entity.o
LOAD LINUX/depdom/DOM_EntityReference.o
LOAD LINUX/depdom/DomMemDebug.o
LOAD LINUX/depdom/DOM_NamedNodeMap.o
LOAD LINUX/depdom/DOM_NodeFilter.o
LOAD LINUX/depdom/DOM_NodeIterator.o
LOAD LINUX/depdom/DOM_NodeList.o
LOAD LINUX/depdom/DOM_Node.o
LOAD LINUX/depdom/DOM_Notation.o
LOAD LINUX/depdom/DOMParser.o
LOAD LINUX/depdom/DOM_ProcessingInstruction.o
LOAD LINUX/depdom/DOM_RangeException.o
LOAD LINUX/depdom/DOM_Range.o
LOAD LINUX/depdom/DOMString.o
LOAD LINUX/depdom/DOM_Text.o
LOAD LINUX/depdom/DOM_TreeWalker.o
LOAD LINUX/depdom/DOM_XMLDecl.o
LOAD LINUX/depdom/DStringPool.o
LOAD LINUX/depdom/ElementDefinitionImpl.o
LOAD LINUX/depdom/ElementImpl.o
LOAD LINUX/depdom/ElementNSImpl.o
LOAD LINUX/depdom/EntityImpl.o
LOAD LINUX/depdom/EntityReferenceImpl.o
LOAD LINUX/depdom/NamedNodeMapImpl.o
LOAD LINUX/depdom/NodeIDMap.o
LOAD LINUX/depdom/NodeImpl.o
LOAD LINUX/depdom/NodeIteratorImpl.o
LOAD LINUX/depdom/NodeListImpl.o
LOAD LINUX/depdom/NodeVector.o
LOAD LINUX/depdom/NotationImpl.o
LOAD LINUX/depdom/ParentNode.o
LOAD LINUX/depdom/ProcessingInstructionImpl.o
LOAD LINUX/depdom/RangeImpl.o
LOAD LINUX/depdom/RefCountedImpl.o
LOAD LINUX/depdom/TextImpl.o
LOAD LINUX/depdom/TreeWalkerImpl.o
LOAD LINUX/depdom/XMLDeclImpl.o
LOAD /usr/lib/gcc/x86_64-redhat-linux/4.4.7/../../../../lib64/libpthread.so
START GROUP
LOAD /lib64/libpthread.so.0
LOAD /usr/lib64/libpthread_nonshared.a
END GROUP
LOAD /root/CineCast/public/xerces-c/src/xerces-c-src_2_7_0//lib/libxerces-c.so
LOAD /usr/lib/gcc/x86_64-redhat-linux/4.4.7/libstdc++.so
LOAD /usr/lib/gcc/x86_64-redhat-linux/4.4.7/../../../../lib64/libm.so
LOAD /usr/lib/gcc/x86_64-redhat-linux/4.4.7/libgcc_s.so
LOAD /usr/lib/gcc/x86_64-redhat-linux/4.4.7/../../../../lib64/libc.so
START GROUP
LOAD /lib64/libc.so.6
LOAD /usr/lib64/libc_nonshared.a
LOAD /lib64/ld-linux-x86-64.so.2
END GROUP
LOAD /usr/lib/gcc/x86_64-redhat-linux/4.4.7/libgcc_s.so
LOAD /usr/lib/gcc/x86_64-redhat-linux/4.4.7/crtendS.o
LOAD /usr/lib/gcc/x86_64-redhat-linux/4.4.7/../../../../lib64/crtn.o
                0x0000000000000190                . = (0x0 + SIZEOF_HEADERS)

.note.gnu.build-id
                0x0000000000000190       0x24
 *(.note.gnu.build-id)
 .note.gnu.build-id
                0x0000000000000190       0x24 /usr/lib/gcc/x86_64-redhat-linux/4.4.7/../../../../lib64/crti.o

.hash
 *(.hash)

.gnu.hash       0x00000000000001b8     0x31e4
 *(.gnu.hash)
 .gnu.hash      0x00000000000001b8     0x31e4 /usr/lib/gcc/x86_64-redhat-linux/4.4.7/../../../../lib64/crti.o

.dynsym         0x00000000000033a0     0xa668
 *(.dynsym)
 .dynsym        0x00000000000033a0     0xa668 /usr/lib/gcc/x86_64-redhat-linux/4.4.7/../../../../lib64/crti.o

.dynstr         0x000000000000da08    0x1522d
 *(.dynstr)
 .dynstr        0x000000000000da08    0x1522d /usr/lib/gcc/x86_64-redhat-linux/4.4.7/../../../../lib64/crti.o

.gnu.version    0x0000000000022c36      0xdde
 *(.gnu.version)
 .gnu.version   0x0000000000022c36      0xdde /usr/lib/gcc/x86_64-redhat-linux/4.4.7/../../../../lib64/crti.o

.gnu.version_d  0x0000000000023a18        0x0 load address 0x0000000000023a14
 *(.gnu.version_d)
 .gnu.version_d
                0x0000000000000000        0x0 /usr/lib/gcc/x86_64-redhat-linux/4.4.7/../../../../lib64/crti.o

.gnu.version_r  0x0000000000023a18       0x70
 *(.gnu.version_r)
 .gnu.version_r
                0x0000000000023a18       0x70 /usr/lib/gcc/x86_64-redhat-linux/4.4.7/../../../../lib64/crti.o

.rela.dyn       0x0000000000023a88     0xa920
 *(.rela.init)
 *(.rela.text .rela.text.* .rela.gnu.linkonce.t.*)
 .rela.text     0x0000000000000000        0x0 /usr/lib/gcc/x86_64-redhat-linux/4.4.7/../../../../lib64/crti.o
 *(.rela.fini)
 *(.rela.rodata .rela.rodata.* .rela.gnu.linkonce.r.*)
 *(.rela.data .rela.data.* .rela.gnu.linkonce.d.*)
 .rela.data.rel.ro
                0x0000000000023a88       0x18 /usr/lib/gcc/x86_64-redhat-linux/4.4.7/../../../../lib64/crti.o
 .rela.data.rel.ro._ZTVN11xercesc_2_78AttrImplE
                0x0000000000023aa0      0x4f8 /usr/lib/gcc/x86_64-redhat-linux/4.4.7/../../../../lib64/crti.o
 .rela.data.rel.ro._ZTVN11xercesc_2_710XMLDeleterE
                0x0000000000023f98       0x48 /usr/lib/gcc/x86_64-redhat-linux/4.4.7/../../../../lib64/crti.o
 .rela.data.rel.ro._ZTIN11xercesc_2_710XMLDeleterE
                0x0000000000023fe0       0x30 /usr/lib/gcc/x86_64-redhat-linux/4.4.7/../../../../lib64/crti.o
 .rela.data.rel.ro._ZTIN11xercesc_2_78AttrImplE
                0x0000000000024010       0x48 /usr/lib/gcc/x86_64-redhat-linux/4.4.7/../../../../lib64/crti.o
 .rela.data.rel.ro._ZTIN11xercesc_2_730ArrayIndexOutOfBoundsExceptionE
                0x0000000000024058       0x48 /usr/lib/gcc/x86_64-redhat-linux/4.4.7/../../../../lib64/crti.o
 .rela.data.rel.ro._ZTVN11xercesc_2_730ArrayIndexOutOfBoundsExceptionE
                0x00000000000240a0       0x78 /usr/lib/gcc/x86_64-redhat-linux/4.4.7/../../../../lib64/crti.o
 .rela.data.DW.ref.__gxx_personality_v0
                0x0000000000024118       0x18 /usr/lib/gcc/x86_64-redhat-linux/4.4.7/../../../../lib64/crti.o
 .rela.data.rel.ro._ZTVN11xercesc_2_711AttrMapImplE
                0x0000000000024130      0x1f8 /usr/lib/gcc/x86_64-redhat-linux/4.4.7/../../../../lib64/crti.o
 .rela.data.rel.ro._ZTIN11xercesc_2_711AttrMapImplE
                0x0000000000024328       0x48 /usr/lib/gcc/x86_64-redhat-linux/4.4.7/../../../../lib64/crti.o
 .rela.data.rel.ro._ZTVN11xercesc_2_710AttrNSImplE
                0x0000000000024370      0x4f8 /usr/lib/gcc/x86_64-redhat-linux/4.4.7/../../../../lib64/crti.o
 .rela.data.rel.ro._ZTIN11xercesc_2_710AttrNSImplE
                0x0000000000024868       0x48 /usr/lib/gcc/x86_64-redhat-linux/4.4.7/../../../../lib64/crti.o
 .rela.data.rel.ro._ZTVN11xercesc_2_716CDATASectionImplE
                0x00000000000248b0      0x588 /usr/lib/gcc/x86_64-redhat-linux/4.4.7/../../../../lib64/crti.o
 .rela.data.rel.ro._ZTIN11xercesc_2_716CDATASectionImplE
                0x0000000000024e38       0x48 /usr/lib/gcc/x86_64-redhat-linux/4.4.7/../../../../lib64/crti.o
 .rela.data.rel.ro._ZTVN11xercesc_2_717CharacterDataImplE
                0x0000000000024e80      0x540 /usr/lib/gcc/x86_64-redhat-linux/4.4.7/../../../../lib64/crti.o
 .rela.data.rel.ro._ZTIN11xercesc_2_717CharacterDataImplE
                0x00000000000253c0       0x48 /usr/lib/gcc/x86_64-redhat-linux/4.4.7/../../../../lib64/crti.o
 .rela.data.rel.ro._ZTVN11xercesc_2_79ChildNodeE
                0x0000000000025408      0x480 /usr/lib/gcc/x86_64-redhat-linux/4.4.7/../../../../lib64/crti.o
 .rela.data.rel.ro._ZTIN11xercesc_2_79ChildNodeE
                0x0000000000025888       0x48 /usr/lib/gcc/x86_64-redhat-linux/4.4.7/../../../../lib64/crti.o
 .rela.data.rel.ro._ZTVN11xercesc_2_711CommentImplE
                0x00000000000258d0      0x540 /usr/lib/gcc/x86_64-redhat-linux/4.4.7/../../../../lib64/crti.o
 .rela.data.rel.ro._ZTIN11xercesc_2_711CommentImplE
                0x0000000000025e10       0x48 /usr/lib/gcc/x86_64-redhat-linux/4.4.7/../../../../lib64/crti.o
 .rela.data.rel.ro._ZTVN11xercesc_2_716DeepNodeListImplE
                0x0000000000025e58       0xc0 /usr/lib/gcc/x86_64-redhat-linux/4.4.7/../../../../lib64/crti.o
 .rela.data.rel.ro._ZTIN11xercesc_2_716DeepNodeListImplE
                0x0000000000025f18       0x48 /usr/lib/gcc/x86_64-redhat-linux/4.4.7/../../../../lib64/crti.o
 .rela.data.rel.ro._ZTVN11xercesc_2_720DocumentFragmentImplE
                0x0000000000025f60      0x480 /usr/lib/gcc/x86_64-redhat-linux/4.4.7/../../../../lib64/crti.o
 .rela.data.rel.ro._ZTIN11xercesc_2_720DocumentFragmentImplE
                0x00000000000263e0       0x48 /usr/lib/gcc/x86_64-redhat-linux/4.4.7/../../../../lib64/crti.o
 .rela.data.rel.ro._ZTVN11xercesc_2_712DocumentImplE
                0x0000000000026428      0x708 /usr/lib/gcc/x86_64-redhat-linux/4.4.7/../../../../lib64/crti.o
 .rela.data.rel.ro._ZTIN11xercesc_2_712DocumentImplE
                0x0000000000026b30       0x48 /usr/lib/gcc/x86_64-redhat-linux/4.4.7/../../../../lib64/crti.o
 .rela.data.rel.ro._ZTIN11xercesc_2_724IllegalArgumentExceptionE
                0x0000000000026b78       0x48 /usr/lib/gcc/x86_64-redhat-linux/4.4.7/../../../../lib64/crti.o
 .rela.data.rel.ro._ZTVN11xercesc_2_724IllegalArgumentExceptionE
                0x0000000000026bc0       0x78 /usr/lib/gcc/x86_64-redhat-linux/4.4.7/../../../../lib64/crti.o
 .rela.data.rel.ro._ZTIN11xercesc_2_722NoSuchElementExceptionE
                0x0000000000026c38       0x48 /usr/lib/gcc/x86_64-redhat-linux/4.4.7/../../../../lib64/crti.o
 .rela.data.rel.ro._ZTVN11xercesc_2_722NoSuchElementExceptionE
                0x0000000000026c80       0x78 /usr/lib/gcc/x86_64-redhat-linux/4.4.7/../../../../lib64/crti.o
 .rela.data.rel.ro._ZTVN11xercesc_2_711RefVectorOfINS_9RangeImplEEE
                0x0000000000026cf8       0xc0 /usr/lib/gcc/x86_64-redhat-linux/4.4.7/../../../../lib64/crti.o
 .rela.data.rel.ro._ZTIN11xercesc_2_711RefVectorOfINS_9RangeImplEEE
                0x0000000000026db8       0x48 /usr/lib/gcc/x86_64-redhat-linux/4.4.7/../../../../lib64/crti.o
 .rela.data.rel.ro._ZTIN11xercesc_2_715BaseRefVectorOfINS_9RangeImplEEE
                0x0000000000026e00       0x48 /usr/lib/gcc/x86_64-redhat-linux/4.4.7/../../../../lib64/crti.o
 .rela.data.rel.ro._ZTIN11xercesc_2_77XMemoryE
                0x0000000000026e48       0x30 /usr/lib/gcc/x86_64-redhat-linux/4.4.7/../../../../lib64/crti.o
 .rela.data.rel.ro._ZTVN11xercesc_2_715BaseRefVectorOfINS_9RangeImplEEE
                0x0000000000026e78       0xc0 /usr/lib/gcc/x86_64-redhat-linux/4.4.7/../../../../lib64/crti.o
 .rela.data.rel.ro._ZTVN11xercesc_2_711RefVectorOfINS_14TreeWalkerImplEEE
                0x0000000000026f38       0xc0 /usr/lib/gcc/x86_64-redhat-linux/4.4.7/../../../../lib64/crti.o
 .rela.data.rel.ro._ZTIN11xercesc_2_711RefVectorOfINS_14TreeWalkerImplEEE
                0x0000000000026ff8       0x48 /usr/lib/gcc/x86_64-redhat-linux/4.4.7/../../../../lib64/crti.o
 .rela.data.rel.ro._ZTIN11xercesc_2_715BaseRefVectorOfINS_14TreeWalkerImplEEE
                0x0000000000027040       0x48 /usr/lib/gcc/x86_64-redhat-linux/4.4.7/../../../../lib64/crti.o
 .rela.data.rel.ro._ZTVN11xercesc_2_715BaseRefVectorOfINS_14TreeWalkerImplEEE
                0x0000000000027088       0xc0 /usr/lib/gcc/x86_64-redhat-linux/4.4.7/../../../../lib64/crti.o
 .rela.data.rel.ro._ZTVN11xercesc_2_711RefVectorOfINS_16NodeIteratorImplEEE
                0x0000000000027148       0xc0 /usr/lib/gcc/x86_64-redhat-linux/4.4.7/../../../../lib64/crti.o
 .rela.data.rel.ro._ZTIN11xercesc_2_711RefVectorOfINS_16NodeIteratorImplEEE
                0x0000000000027208       0x48 /usr/lib/gcc/x86_64-redhat-linux/4.4.7/../../../../lib64/crti.o
 .rela.data.rel.ro._ZTIN11xercesc_2_715BaseRefVectorOfINS_16NodeIteratorImplEEE
                0x0000000000027250       0x48 /usr/lib/gcc/x86_64-redhat-linux/4.4.7/../../../../lib64/crti.o
 .rela.data.rel.ro._ZTVN11xercesc_2_715BaseRefVectorOfINS_16NodeIteratorImplEEE
                0x0000000000027298       0xc0 /usr/lib/gcc/x86_64-redhat-linux/4.4.7/../../../../lib64/crti.o
 .rela.data.rel.ro._ZTVN11xercesc_2_716DocumentTypeImplE
                0x0000000000027358      0x570 /usr/lib/gcc/x86_64-redhat-linux/4.4.7/../../../../lib64/crti.o
 .rela.data.rel.ro._ZTIN11xercesc_2_716DocumentTypeImplE
                0x00000000000278c8       0x48 /usr/lib/gcc/x86_64-redhat-linux/4.4.7/../../../../lib64/crti.o
 .rela.data.rel.ro._ZTVN11xercesc_2_716DOM_DOMExceptionE
                0x0000000000027910       0x48 /usr/lib/gcc/x86_64-redhat-linux/4.4.7/../../../../lib64/crti.o
 .rela.data.rel.ro._ZTIN11xercesc_2_716DOM_DOMExceptionE
                0x0000000000027958       0x30 /usr/lib/gcc/x86_64-redhat-linux/4.4.7/../../../../lib64/crti.o
 .rela.data.rel.ro._ZTVN11xercesc_2_714DOM_NodeFilterE
                0x0000000000027988       0x60 /usr/lib/gcc/x86_64-redhat-linux/4.4.7/../../../../lib64/crti.o
 .rela.data.rel.ro._ZTIN11xercesc_2_714DOM_NodeFilterE
                0x00000000000279e8       0x30 /usr/lib/gcc/x86_64-redhat-linux/4.4.7/../../../../lib64/crti.o
 .rela.data.rel.ro._ZTVN11xercesc_2_79DOMParserE
                0x0000000000027a18      0x6d8 /usr/lib/gcc/x86_64-redhat-linux/4.4.7/../../../../lib64/crti.o
 .rela.data.rel.ro._ZTVN11xercesc_2_715ContentSpecNodeE
                0x00000000000280f0       0x90 /usr/lib/gcc/x86_64-redhat-linux/4.4.7/../../../../lib64/crti.o
 .rela.data.rel.ro._ZTVN11xercesc_2_713XMLAttDefListE
                0x0000000000028180      0x198 /usr/lib/gcc/x86_64-redhat-linux/4.4.7/../../../../lib64/crti.o
 .rela.data.rel.ro._ZTVN11xercesc_2_713DTDEntityDeclE
                0x0000000000028318       0xd8 /usr/lib/gcc/x86_64-redhat-linux/4.4.7/../../../../lib64/crti.o
 .rela.data.rel.ro._ZTVN11xercesc_2_710XMLRefInfoE
                0x00000000000283f0       0x90 /usr/lib/gcc/x86_64-redhat-linux/4.4.7/../../../../lib64/crti.o
 .rela.data.rel.ro._ZTIN11xercesc_2_715ContentSpecNodeE
                0x0000000000028480       0x60 /usr/lib/gcc/x86_64-redhat-linux/4.4.7/../../../../lib64/crti.o
 .rela.data.rel.ro._ZTIN11xercesc_2_79DOMParserE
                0x00000000000284e0       0xa8 /usr/lib/gcc/x86_64-redhat-linux/4.4.7/../../../../lib64/crti.o
 .rela.data.rel.ro._ZTIN11xercesc_2_713XMLAttDefListE
                0x0000000000028588       0x60 /usr/lib/gcc/x86_64-redhat-linux/4.4.7/../../../../lib64/crti.o
 .rela.data.rel.ro._ZTIN11xercesc_2_713DTDEntityDeclE
                0x00000000000285e8       0x48 /usr/lib/gcc/x86_64-redhat-linux/4.4.7/../../../../lib64/crti.o
 .rela.data.rel.ro._ZTIN11xercesc_2_710XMLRefInfoE
                0x0000000000028630       0x60 /usr/lib/gcc/x86_64-redhat-linux/4.4.7/../../../../lib64/crti.o
 .rela.data.rel.ro._ZTIN11xercesc_2_713XSerializableE
                0x0000000000028690       0x30 /usr/lib/gcc/x86_64-redhat-linux/4.4.7/../../../../lib64/crti.o
 .rela.data.rel.ro._ZTIN11xercesc_2_718XMLDocumentHandlerE
                0x00000000000286c0       0x30 /usr/lib/gcc/x86_64-redhat-linux/4.4.7/../../../../lib64/crti.o
 .rela.data.rel.ro._ZTIN11xercesc_2_716XMLErrorReporterE
                0x00000000000286f0       0x30 /usr/lib/gcc/x86_64-redhat-linux/4.4.7/../../../../lib64/crti.o
 .rela.data.rel.ro._ZTIN11xercesc_2_716XMLEntityHandlerE
                0x0000000000028720       0x30 /usr/lib/gcc/x86_64-redhat-linux/4.4.7/../../../../lib64/crti.o
 .rela.data.rel.ro._ZTIN11xercesc_2_714DocTypeHandlerE
                0x0000000000028750       0x30 /usr/lib/gcc/x86_64-redhat-linux/4.4.7/../../../../lib64/crti.o
 .rela.data.rel.ro._ZTVN11xercesc_2_713XSerializableE
                0x0000000000028780       0x90 /usr/lib/gcc/x86_64-redhat-linux/4.4.7/../../../../lib64/crti.o
 .rela.data.rel.ro._ZTIN11xercesc_2_711IOExceptionE
                0x0000000000028810       0x48 /usr/lib/gcc/x86_64-redhat-linux/4.4.7/../../../../lib64/crti.o
 .rela.data.rel.ro._ZTVN11xercesc_2_711IOExceptionE
                0x0000000000028858       0x78 /usr/lib/gcc/x86_64-redhat-linux/4.4.7/../../../../lib64/crti.o
 .rela.data.rel.ro._ZTIN11xercesc_2_719EmptyStackExceptionE
                0x00000000000288d0       0x48 /usr/lib/gcc/x86_64-redhat-linux/4.4.7/../../../../lib64/crti.o
 .rela.data.rel.ro._ZTVN11xercesc_2_719EmptyStackExceptionE
                0x0000000000028918       0x78 /usr/lib/gcc/x86_64-redhat-linux/4.4.7/../../../../lib64/crti.o
 .rela.data.rel.ro._ZTVN11xercesc_2_714DocTypeHandlerE
                0x0000000000028990      0x1c8 /usr/lib/gcc/x86_64-redhat-linux/4.4.7/../../../../lib64/crti.o
 .rela.data.rel.ro._ZTVN11xercesc_2_716XMLEntityHandlerE
                0x0000000000028b58       0xd8 /usr/lib/gcc/x86_64-redhat-linux/4.4.7/../../../../lib64/crti.o
 .rela.data.rel.ro._ZTVN11xercesc_2_716XMLErrorReporterE
                0x0000000000028c30       0x78 /usr/lib/gcc/x86_64-redhat-linux/4.4.7/../../../../lib64/crti.o
 .rela.data.rel.ro._ZTVN11xercesc_2_718XMLDocumentHandlerE
                0x0000000000028ca8      0x180 /usr/lib/gcc/x86_64-redhat-linux/4.4.7/../../../../lib64/crti.o
 .rela.data.rel.ro._ZTIN11xercesc_2_720OutOfMemoryExceptionE
                0x0000000000028e28       0x48 /usr/lib/gcc/x86_64-redhat-linux/4.4.7/../../../../lib64/crti.o
 .rela.data.DW.ref._ZTIN11xercesc_2_720OutOfMemoryExceptionE
                0x0000000000028e70       0x18 /usr/lib/gcc/x86_64-redhat-linux/4.4.7/../../../../lib64/crti.o
 .rela.data.rel.ro._ZTVN11xercesc_2_718DOM_RangeExceptionE
                0x0000000000028e88       0x48 /usr/lib/gcc/x86_64-redhat-linux/4.4.7/../../../../lib64/crti.o
 .rela.data.rel.ro._ZTIN11xercesc_2_718DOM_RangeExceptionE
                0x0000000000028ed0       0x48 /usr/lib/gcc/x86_64-redhat-linux/4.4.7/../../../../lib64/crti.o
 .rela.data.rel.ro._ZTVN11xercesc_2_721ElementDefinitionImplE
                0x0000000000028f18      0x480 /usr/lib/gcc/x86_64-redhat-linux/4.4.7/../../../../lib64/crti.o
 .rela.data.rel.ro._ZTIN11xercesc_2_721ElementDefinitionImplE
                0x0000000000029398       0x48 /usr/lib/gcc/x86_64-redhat-linux/4.4.7/../../../../lib64/crti.o
 .rela.data.rel.ro._ZTVN11xercesc_2_711ElementImplE
                0x00000000000293e0      0x780 /usr/lib/gcc/x86_64-redhat-linux/4.4.7/../../../../lib64/crti.o
 .rela.data.rel.ro._ZTIN11xercesc_2_711ElementImplE
                0x0000000000029b60       0x48 /usr/lib/gcc/x86_64-redhat-linux/4.4.7/../../../../lib64/crti.o
 .rela.data.rel.ro._ZTVN11xercesc_2_713ElementNSImplE
                0x0000000000029ba8      0x780 /usr/lib/gcc/x86_64-redhat-linux/4.4.7/../../../../lib64/crti.o
 .rela.data.rel.ro._ZTIN11xercesc_2_713ElementNSImplE
                0x000000000002a328       0x48 /usr/lib/gcc/x86_64-redhat-linux/4.4.7/../../../../lib64/crti.o
 .rela.data.rel.ro._ZTVN11xercesc_2_710EntityImplE
                0x000000000002a370      0x510 /usr/lib/gcc/x86_64-redhat-linux/4.4.7/../../../../lib64/crti.o
 .rela.data.rel.ro._ZTIN11xercesc_2_710EntityImplE
                0x000000000002a880       0x48 /usr/lib/gcc/x86_64-redhat-linux/4.4.7/../../../../lib64/crti.o
 .rela.data.rel.ro._ZTVN11xercesc_2_719EntityReferenceImplE
                0x000000000002a8c8      0x480 /usr/lib/gcc/x86_64-redhat-linux/4.4.7/../../../../lib64/crti.o
 .rela.data.rel.ro._ZTIN11xercesc_2_719EntityReferenceImplE
                0x000000000002ad48       0x48 /usr/lib/gcc/x86_64-redhat-linux/4.4.7/../../../../lib64/crti.o
 .rela.data.rel.ro._ZTVN11xercesc_2_716NamedNodeMapImplE
                0x000000000002ad90      0x1b0 /usr/lib/gcc/x86_64-redhat-linux/4.4.7/../../../../lib64/crti.o
 .rela.data.rel.ro._ZTIN11xercesc_2_716NamedNodeMapImplE
                0x000000000002af40       0x48 /usr/lib/gcc/x86_64-redhat-linux/4.4.7/../../../../lib64/crti.o
 .rela.data.rel.ro._ZTVN11xercesc_2_79NodeIDMapE
                0x000000000002af88       0x48 /usr/lib/gcc/x86_64-redhat-linux/4.4.7/../../../../lib64/crti.o
 .rela.data.rel.ro._ZTIN11xercesc_2_79NodeIDMapE
                0x000000000002afd0       0x48 /usr/lib/gcc/x86_64-redhat-linux/4.4.7/../../../../lib64/crti.o
 .rela.data.rel.ro._ZTIN11xercesc_2_716RuntimeExceptionE
                0x000000000002b018       0x48 /usr/lib/gcc/x86_64-redhat-linux/4.4.7/../../../../lib64/crti.o
 .rela.data.rel.ro._ZTVN11xercesc_2_716RuntimeExceptionE
                0x000000000002b060       0x78 /usr/lib/gcc/x86_64-redhat-linux/4.4.7/../../../../lib64/crti.o
 .rela.data.rel.ro._ZTVN11xercesc_2_78NodeImplE
                0x000000000002b0d8      0x480 /usr/lib/gcc/x86_64-redhat-linux/4.4.7/../../../../lib64/crti.o
 .rela.data.rel.ro._ZTIN11xercesc_2_78NodeImplE
                0x000000000002b558       0x48 /usr/lib/gcc/x86_64-redhat-linux/4.4.7/../../../../lib64/crti.o
 .rela.data.rel.ro._ZTVN11xercesc_2_716NodeIteratorImplE
                0x000000000002b5a0       0x78 /usr/lib/gcc/x86_64-redhat-linux/4.4.7/../../../../lib64/crti.o
 .rela.data.rel.ro._ZTIN11xercesc_2_716NodeIteratorImplE
                0x000000000002b618       0x48 /usr/lib/gcc/x86_64-redhat-linux/4.4.7/../../../../lib64/crti.o
 .rela.data.rel.ro._ZTVN11xercesc_2_712NodeListImplE
                0x000000000002b660       0xa8 /usr/lib/gcc/x86_64-redhat-linux/4.4.7/../../../../lib64/crti.o
 .rela.data.rel.ro._ZTIN11xercesc_2_712NodeListImplE
                0x000000000002b708       0x48 /usr/lib/gcc/x86_64-redhat-linux/4.4.7/../../../../lib64/crti.o
 .rela.data.rel.ro._ZTVN11xercesc_2_712NotationImplE
                0x000000000002b750      0x4e0 /usr/lib/gcc/x86_64-redhat-linux/4.4.7/../../../../lib64/crti.o
 .rela.data.rel.ro._ZTIN11xercesc_2_712NotationImplE
                0x000000000002bc30       0x48 /usr/lib/gcc/x86_64-redhat-linux/4.4.7/../../../../lib64/crti.o
 .rela.data.rel.ro._ZTVN11xercesc_2_710ParentNodeE
                0x000000000002bc78      0x480 /usr/lib/gcc/x86_64-redhat-linux/4.4.7/../../../../lib64/crti.o
 .rela.data.rel.ro._ZTIN11xercesc_2_710ParentNodeE
                0x000000000002c0f8       0x48 /usr/lib/gcc/x86_64-redhat-linux/4.4.7/../../../../lib64/crti.o
 .rela.data.rel.ro._ZTVN11xercesc_2_725ProcessingInstructionImplE
                0x000000000002c140      0x4c8 /usr/lib/gcc/x86_64-redhat-linux/4.4.7/../../../../lib64/crti.o
 .rela.data.rel.ro._ZTIN11xercesc_2_725ProcessingInstructionImplE
                0x000000000002c608       0x48 /usr/lib/gcc/x86_64-redhat-linux/4.4.7/../../../../lib64/crti.o
 .rela.data.rel.ro._ZTVN11xercesc_2_79RangeImplE
                0x000000000002c650       0x78 /usr/lib/gcc/x86_64-redhat-linux/4.4.7/../../../../lib64/crti.o
 .rela.data.rel.ro._ZTIN11xercesc_2_79RangeImplE
                0x000000000002c6c8       0x48 /usr/lib/gcc/x86_64-redhat-linux/4.4.7/../../../../lib64/crti.o
 .rela.data.rel.ro._ZTVN11xercesc_2_711RefVectorOfINS_8NodeImplEEE
                0x000000000002c710       0xc0 /usr/lib/gcc/x86_64-redhat-linux/4.4.7/../../../../lib64/crti.o
 .rela.data.rel.ro._ZTIN11xercesc_2_711RefVectorOfINS_8NodeImplEEE
                0x000000000002c7d0       0x48 /usr/lib/gcc/x86_64-redhat-linux/4.4.7/../../../../lib64/crti.o
 .rela.data.rel.ro._ZTIN11xercesc_2_715BaseRefVectorOfINS_8NodeImplEEE
                0x000000000002c818       0x48 /usr/lib/gcc/x86_64-redhat-linux/4.4.7/../../../../lib64/crti.o
 .rela.data.rel.ro._ZTVN11xercesc_2_715BaseRefVectorOfINS_8NodeImplEEE
                0x000000000002c860       0xc0 /usr/lib/gcc/x86_64-redhat-linux/4.4.7/../../../../lib64/crti.o
 .rela.data.rel.ro._ZTVN11xercesc_2_714RefCountedImplE
                0x000000000002c920       0x78 /usr/lib/gcc/x86_64-redhat-linux/4.4.7/../../../../lib64/crti.o
 .rela.data.rel.ro._ZTIN11xercesc_2_714RefCountedImplE
                0x000000000002c998       0x48 /usr/lib/gcc/x86_64-redhat-linux/4.4.7/../../../../lib64/crti.o
 .rela.data.rel.ro._ZTVN11xercesc_2_78TextImplE
                0x000000000002c9e0      0x588 /usr/lib/gcc/x86_64-redhat-linux/4.4.7/../../../../lib64/crti.o
 .rela.data.rel.ro._ZTIN11xercesc_2_78TextImplE
                0x000000000002cf68       0x48 /usr/lib/gcc/x86_64-redhat-linux/4.4.7/../../../../lib64/crti.o
 .rela.data.rel.ro._ZTVN11xercesc_2_714TreeWalkerImplE
                0x000000000002cfb0       0x78 /usr/lib/gcc/x86_64-redhat-linux/4.4.7/../../../../lib64/crti.o
 .rela.data.rel.ro._ZTIN11xercesc_2_714TreeWalkerImplE
                0x000000000002d028       0x48 /usr/lib/gcc/x86_64-redhat-linux/4.4.7/../../../../lib64/crti.o
 .rela.data.rel.ro._ZTVN11xercesc_2_711XMLDeclImplE
                0x000000000002d070      0x510 /usr/lib/gcc/x86_64-redhat-linux/4.4.7/../../../../lib64/crti.o
 .rela.data.rel.ro._ZTIN11xercesc_2_711XMLDeclImplE
                0x000000000002d580       0x48 /usr/lib/gcc/x86_64-redhat-linux/4.4.7/../../../../lib64/crti.o
 *(.rela.tdata .rela.tdata.* .rela.gnu.linkonce.td.*)
 *(.rela.tbss .rela.tbss.* .rela.gnu.linkonce.tb.*)
 *(.rela.ctors)
 .rela.ctors    0x000000000002d5c8      0x108 /usr/lib/gcc/x86_64-redhat-linux/4.4.7/../../../../lib64/crti.o
 *(.rela.dtors)
 *(.rela.got)
 .rela.got      0x000000000002d6d0      0xcd8 /usr/lib/gcc/x86_64-redhat-linux/4.4.7/../../../../lib64/crti.o
 *(.rela.sharable_data .rela.sharable_data.* .rela.gnu.linkonce.shrd.*)
 *(.rela.sharable_bss .rela.sharable_bss.* .rela.gnu.linkonce.shrb.*)
 *(.rela.bss .rela.bss.* .rela.gnu.linkonce.b.*)
 *(.rela.ldata .rela.ldata.* .rela.gnu.linkonce.l.*)
 *(.rela.lbss .rela.lbss.* .rela.gnu.linkonce.lb.*)
 *(.rela.lrodata .rela.lrodata.* .rela.gnu.linkonce.lr.*)
 *(.rela.ifunc)
 .rela.ifunc    0x0000000000000000        0x0 /usr/lib/gcc/x86_64-redhat-linux/4.4.7/../../../../lib64/crti.o
 .rela.eh_frame
                0x0000000000000000        0x0 /usr/lib/gcc/x86_64-redhat-linux/4.4.7/../../../../lib64/crti.o
 .rela.gcc_except_table
                0x0000000000000000        0x0 /usr/lib/gcc/x86_64-redhat-linux/4.4.7/../../../../lib64/crti.o

.rela.plt       0x000000000002e3a8     0x30c0
 *(.rela.plt)
 .rela.plt      0x000000000002e3a8     0x30c0 /usr/lib/gcc/x86_64-redhat-linux/4.4.7/../../../../lib64/crti.o
 *(.rela.iplt)

.init           0x0000000000031468       0x18
 *(.init)
 .init          0x0000000000031468        0x9 /usr/lib/gcc/x86_64-redhat-linux/4.4.7/../../../../lib64/crti.o
                0x0000000000031468                _init
 .init          0x0000000000031471        0x5 /usr/lib/gcc/x86_64-redhat-linux/4.4.7/crtbeginS.o
 .init          0x0000000000031476        0x5 /usr/lib/gcc/x86_64-redhat-linux/4.4.7/crtendS.o
 .init          0x000000000003147b        0x5 /usr/lib/gcc/x86_64-redhat-linux/4.4.7/../../../../lib64/crtn.o

.plt            0x0000000000031480     0x2090
 *(.plt)
 .plt           0x0000000000031480     0x2090 /usr/lib/gcc/x86_64-redhat-linux/4.4.7/../../../../lib64/crti.o
 *(.iplt)

.text           0x0000000000033510    0x23588
 *(.text.unlikely .text.*_unlikely)
 *(.text .stub .text.* .gnu.linkonce.t.*)
 .text          0x0000000000033510       0x17 /usr/lib/gcc/x86_64-redhat-linux/4.4.7/../../../../lib64/crti.o
 *fill*         0x0000000000033527        0x9 90909090
 .text          0x0000000000033530       0xaa /usr/lib/gcc/x86_64-redhat-linux/4.4.7/crtbeginS.o
 *fill*         0x00000000000335da        0x6 90909090
 .text          0x00000000000335e0     0x16e5 LINUX/depdom/AttrImpl.o
                0x00000000000335e0                _ZN11xercesc_2_78AttrImpl11getNodeTypeEv
                0x00000000000335e6                _ZN11xercesc_2_78AttrImpl12getNodeValueEv
                0x00000000000335f8                _ZN11xercesc_2_78AttrImpl12getSpecifiedEv
                0x000000000003360a                _ZN11xercesc_2_78AttrImpl10isAttrImplEv
                0x0000000000033610                _ZN11xercesc_2_78AttrImpl12setNodeValueERKNS_9DOMStringE
                0x0000000000033622                _ZN11xercesc_2_78AttrImpl12setSpecifiedEb
                0x000000000003364c                _ZN11xercesc_2_78AttrImpl15getOwnerElementEv
                0x0000000000033668                _ZN11xercesc_2_78AttrImpl15setOwnerElementEPNS_11ElementImplE
                0x000000000003367e                _ZN11xercesc_2_78AttrImpl13cloneChildrenERKNS_8NodeImplE
                0x00000000000336e6                _ZN11xercesc_2_78AttrImpl13getChildNodesEv
                0x00000000000336ea                _ZN11xercesc_2_78AttrImpl9lastChildEPNS_9ChildNodeE
                0x00000000000336fa                _ZN11xercesc_2_78AttrImpl9getLengthEv
                0x0000000000033728                _ZN11xercesc_2_78AttrImpl13hasChildNodesEv
                0x0000000000033732                _ZN11xercesc_2_78AttrImpl12replaceChildEPNS_8NodeImplES2_
                0x0000000000033782                _ZN11xercesc_2_78AttrImpl9normalizeEv
                0x0000000000033872                _ZN11xercesc_2_78AttrImpl11setReadOnlyEbb
                0x00000000000338d6                _ZN11xercesc_2_78AttrImpl11removeChildEPNS_8NodeImplE
                0x0000000000033ba0                _ZN11xercesc_2_78AttrImpl8toStringEv
                0x0000000000033c8a                _ZN11xercesc_2_78AttrImpl13makeChildNodeEv
                0x0000000000033de2                _ZN11xercesc_2_78AttrImpl4itemEj
                0x0000000000033e38                _ZN11xercesc_2_78AttrImpl12insertBeforeEPNS_8NodeImplES2_
                0x0000000000034464                _ZN11xercesc_2_78AttrImpl9lastChildEv
                0x0000000000034482                _ZN11xercesc_2_78AttrImpl12getLastChildEv
                0x0000000000034490                _ZN11xercesc_2_78AttrImpl13getFirstChildEv
                0x00000000000344a0                _ZN11xercesc_2_78AttrImpl8setValueERKNS_9DOMStringE
                0x00000000000346dc                _ZN11xercesc_2_78AttrImpl7getNameEv
                0x00000000000346ee                _ZN11xercesc_2_78AttrImpl11getNodeNameEv
                0x0000000000034700                _ZN11xercesc_2_78AttrImpl8getValueEv
                0x00000000000348c2                _ZN11xercesc_2_78AttrImplD2Ev
                0x00000000000348c2                _ZN11xercesc_2_78AttrImplD1Ev
                0x000000000003495a                _ZN11xercesc_2_78AttrImplD0Ev
                0x000000000003496e                _ZN11xercesc_2_78AttrImplC1ERKS0_b
                0x000000000003496e                _ZN11xercesc_2_78AttrImplC2ERKS0_b
                0x0000000000034b86                _ZN11xercesc_2_78AttrImpl9cloneNodeEb
                0x0000000000034c08                _ZN11xercesc_2_78AttrImplC1EPNS_12DocumentImplERKNS_9DOMStringE
                0x0000000000034c08                _ZN11xercesc_2_78AttrImplC2EPNS_12DocumentImplERKNS_9DOMStringE
 *fill*         0x0000000000034cc5        0x1 90909090
 .text._ZNK11xercesc_2_730ArrayIndexOutOfBoundsException7getTypeEv
                0x0000000000034cc6        0x8 LINUX/depdom/AttrImpl.o
                0x0000000000034cc6                _ZNK11xercesc_2_730ArrayIndexOutOfBoundsException7getTypeEv
 .text._ZN11xercesc_2_710XMLDeleterD2Ev
                0x0000000000034cce        0xf LINUX/depdom/AttrImpl.o
                0x0000000000034cce                _ZN11xercesc_2_710XMLDeleterD1Ev
                0x0000000000034cce                _ZN11xercesc_2_710XMLDeleterD2Ev
 *fill*         0x0000000000034cdd        0x1 90909090
 .text._ZNK11xercesc_2_715BaseRefVectorOfINS_9RangeImplEE4sizeEv
                0x0000000000034cde        0x4 LINUX/depdom/AttrImpl.o
                0x0000000000034cde                _ZNK11xercesc_2_715BaseRefVectorOfINS_9RangeImplEE4sizeEv
 .text._ZN11xercesc_2_710XMLDeleterD0Ev
                0x0000000000034ce2       0x1c LINUX/depdom/AttrImpl.o
                0x0000000000034ce2                _ZN11xercesc_2_710XMLDeleterD0Ev
 *fill*         0x0000000000034cfe        0x2 90909090
 .text._ZN11xercesc_2_715BaseRefVectorOfINS_9RangeImplEE9elementAtEj
                0x0000000000034d00       0xbf LINUX/depdom/AttrImpl.o
                0x0000000000034d00                _ZN11xercesc_2_715BaseRefVectorOfINS_9RangeImplEE9elementAtEj
 *fill*         0x0000000000034dbf        0x1 90909090
 .text._ZN11xercesc_2_730ArrayIndexOutOfBoundsExceptionD2Ev
                0x0000000000034dc0       0x1c LINUX/depdom/AttrImpl.o
                0x0000000000034dc0                _ZN11xercesc_2_730ArrayIndexOutOfBoundsExceptionD1Ev
                0x0000000000034dc0                _ZN11xercesc_2_730ArrayIndexOutOfBoundsExceptionD2Ev
 .text._ZNK11xercesc_2_730ArrayIndexOutOfBoundsException9duplicateEv
                0x0000000000034ddc       0x6e LINUX/depdom/AttrImpl.o
                0x0000000000034ddc                _ZNK11xercesc_2_730ArrayIndexOutOfBoundsException9duplicateEv
 .text._ZN11xercesc_2_730ArrayIndexOutOfBoundsExceptionD0Ev
                0x0000000000034e4a       0x21 LINUX/depdom/AttrImpl.o
                0x0000000000034e4a                _ZN11xercesc_2_730ArrayIndexOutOfBoundsExceptionD0Ev
 *fill*         0x0000000000034e6b        0x1 90909090
 .text          0x0000000000034e6c      0x29b LINUX/depdom/AttrMapImpl.o
                0x0000000000034e6c                _ZN11xercesc_2_711AttrMapImpl17removeNamedItemNSERKNS_9DOMStringES3_
                0x0000000000034f0e                _ZN11xercesc_2_711AttrMapImpl15removeNamedItemERKNS_9DOMStringE
                0x0000000000034fa0                _ZN11xercesc_2_711AttrMapImplD1Ev
                0x0000000000034fa0                _ZN11xercesc_2_711AttrMapImplD2Ev
                0x0000000000034fbc                _ZN11xercesc_2_711AttrMapImplD0Ev
                0x0000000000034fd0                _ZN11xercesc_2_711AttrMapImplC1EPNS_8NodeImplEPNS_16NamedNodeMapImplE
                0x0000000000034fd0                _ZN11xercesc_2_711AttrMapImplC2EPNS_8NodeImplEPNS_16NamedNodeMapImplE
                0x000000000003504a                _ZN11xercesc_2_711AttrMapImplC1EPNS_8NodeImplE
                0x000000000003504a                _ZN11xercesc_2_711AttrMapImplC2EPNS_8NodeImplE
                0x0000000000035068                _ZN11xercesc_2_711AttrMapImpl12cloneAttrMapEPNS_8NodeImplE
 *fill*         0x0000000000035107        0x1 90909090
 .text._ZN11xercesc_2_711AttrMapImpl11hasDefaultsEv
                0x0000000000035108        0x5 LINUX/depdom/AttrMapImpl.o
                0x0000000000035108                _ZN11xercesc_2_711AttrMapImpl11hasDefaultsEv
 *fill*         0x000000000003510d        0x1 90909090
 .text._ZN11xercesc_2_711AttrMapImpl11hasDefaultsEb
                0x000000000003510e        0x5 LINUX/depdom/AttrMapImpl.o
                0x000000000003510e                _ZN11xercesc_2_711AttrMapImpl11hasDefaultsEb
 *fill*         0x0000000000035113        0xd 90909090
 .text          0x0000000000035120      0xc1c LINUX/depdom/AttrNSImpl.o
                0x0000000000035120                _ZN11xercesc_2_710AttrNSImpl9setPrefixERKNS_9DOMStringE
                0x00000000000356be                _ZN11xercesc_2_710AttrNSImpl12getLocalNameEv
                0x00000000000356d0                _ZN11xercesc_2_710AttrNSImpl15getNamespaceURIEv
                0x00000000000356e2                _ZN11xercesc_2_710AttrNSImpl9getPrefixEv
                0x0000000000035736                _ZN11xercesc_2_710AttrNSImplC1ERKS0_b
                0x0000000000035736                _ZN11xercesc_2_710AttrNSImplC2ERKS0_b
                0x000000000003582e                _ZN11xercesc_2_710AttrNSImpl9cloneNodeEb
                0x00000000000358b0                _ZN11xercesc_2_710AttrNSImplC1EPNS_12DocumentImplERKNS_9DOMStringE
                0x00000000000358b0                _ZN11xercesc_2_710AttrNSImplC2EPNS_12DocumentImplERKNS_9DOMStringE
                0x0000000000035958                _ZN11xercesc_2_710AttrNSImplC2EPNS_12DocumentImplERKNS_9DOMStringES5_
                0x0000000000035958                _ZN11xercesc_2_710AttrNSImplC1EPNS_12DocumentImplERKNS_9DOMStringES5_
 *fill*         0x0000000000035d3c        0x4 90909090
 .text._ZN11xercesc_2_710AttrNSImplD2Ev
                0x0000000000035d40       0x6d LINUX/depdom/AttrNSImpl.o
                0x0000000000035d40                _ZN11xercesc_2_710AttrNSImplD1Ev
                0x0000000000035d40                _ZN11xercesc_2_710AttrNSImplD2Ev
 *fill*         0x0000000000035dad        0x3 90909090
 .text._ZN11xercesc_2_710AttrNSImplD0Ev
                0x0000000000035db0       0x75 LINUX/depdom/AttrNSImpl.o
                0x0000000000035db0                _ZN11xercesc_2_710AttrNSImplD0Ev
 *fill*         0x0000000000035e25        0x3 90909090
 .text          0x0000000000035e28      0x169 LINUX/depdom/CDATASectionImpl.o
                0x0000000000035e28                _ZN11xercesc_2_716CDATASectionImpl11getNodeTypeEv
                0x0000000000035e2e                _ZN11xercesc_2_716CDATASectionImpl18isCDATASectionImplEv
                0x0000000000035e4a                _ZN11xercesc_2_716CDATASectionImpl22reinitCDATASectionImplEv
                0x0000000000035e74                _ZN11xercesc_2_716CDATASectionImpl11getNodeNameEv
                0x0000000000035eaa                _ZN11xercesc_2_716CDATASectionImplD2Ev
                0x0000000000035eaa                _ZN11xercesc_2_716CDATASectionImplD1Ev
                0x0000000000035ec6                _ZN11xercesc_2_716CDATASectionImplD0Ev
                0x0000000000035eda                _ZN11xercesc_2_716CDATASectionImplC2ERKS0_b
                0x0000000000035eda                _ZN11xercesc_2_716CDATASectionImplC1ERKS0_b
                0x0000000000035ef6                _ZN11xercesc_2_716CDATASectionImpl9cloneNodeEb
                0x0000000000035f78                _ZN11xercesc_2_716CDATASectionImplC2EPNS_12DocumentImplERKNS_9DOMStringE
                0x0000000000035f78                _ZN11xercesc_2_716CDATASectionImplC1EPNS_12DocumentImplERKNS_9DOMStringE
 *fill*         0x0000000000035f91        0xf 90909090
 .text          0x0000000000035fa0      0x836 LINUX/depdom/CharacterDataImpl.o
                0x0000000000035fa0                _ZN11xercesc_2_717CharacterDataImpl7getDataEv
                0x0000000000035fa6                _ZN11xercesc_2_717CharacterDataImpl13substringDataEjj
                0x0000000000035fb8                _ZN11xercesc_2_717CharacterDataImpl11replaceDataEjjRKNS_9DOMStringE
                0x00000000000360a4                _ZN11xercesc_2_717CharacterDataImpl7setDataERKNS_9DOMStringE
                0x0000000000036192                _ZN11xercesc_2_717CharacterDataImpl10insertDataEjRKNS_9DOMStringE
                0x000000000003624c                _ZN11xercesc_2_717CharacterDataImpl17getCharDataLengthEv
                0x000000000003625e                _ZN11xercesc_2_717CharacterDataImpl10deleteDataEjj
                0x00000000000363de                _ZN11xercesc_2_717CharacterDataImpl10appendDataERKNS_9DOMStringE
                0x00000000000364a8                _ZN11xercesc_2_717CharacterDataImpl12setNodeValueERKNS_9DOMStringE
                0x000000000003661e                _ZN11xercesc_2_717CharacterDataImpl12getNodeValueEv
                0x0000000000036630                _ZN11xercesc_2_717CharacterDataImplD1Ev
                0x0000000000036630                _ZN11xercesc_2_717CharacterDataImplD2Ev
                0x0000000000036684                _ZN11xercesc_2_717CharacterDataImplD0Ev
                0x0000000000036698                _ZN11xercesc_2_717CharacterDataImplC2ERKS0_b
                0x0000000000036698                _ZN11xercesc_2_717CharacterDataImplC1ERKS0_b
                0x0000000000036736                _ZN11xercesc_2_717CharacterDataImplC2EPNS_12DocumentImplERKNS_9DOMStringE
                0x0000000000036736                _ZN11xercesc_2_717CharacterDataImplC1EPNS_12DocumentImplERKNS_9DOMStringE
 *fill*         0x00000000000367d6        0x2 90909090
 .text          0x00000000000367d8       0xd1 LINUX/depdom/ChildNode.o
                0x00000000000367d8                _ZN11xercesc_2_79ChildNode14getNextSiblingEv
                0x00000000000367de                _ZN11xercesc_2_79ChildNode13getParentNodeEv
                0x00000000000367fa                _ZN11xercesc_2_79ChildNode18getPreviousSiblingEv
                0x0000000000036816                _ZN11xercesc_2_79ChildNodeD1Ev
                0x0000000000036816                _ZN11xercesc_2_79ChildNodeD2Ev
                0x0000000000036832                _ZN11xercesc_2_79ChildNodeD0Ev
                0x0000000000036846                _ZN11xercesc_2_79ChildNodeC2ERKS0_
                0x0000000000036846                _ZN11xercesc_2_79ChildNodeC1ERKS0_
                0x0000000000036880                _ZN11xercesc_2_79ChildNodeC2EPNS_12DocumentImplE
                0x0000000000036880                _ZN11xercesc_2_79ChildNodeC1EPNS_12DocumentImplE
 *fill*         0x00000000000368a9        0x3 90909090
 .text          0x00000000000368ac      0x163 LINUX/depdom/CommentImpl.o
                0x00000000000368ac                _ZN11xercesc_2_711CommentImpl11getNodeTypeEv
                0x00000000000368c8                _ZN11xercesc_2_711CommentImpl17reinitCommentImplEv
                0x00000000000368f2                _ZN11xercesc_2_711CommentImpl11getNodeNameEv
                0x0000000000036928                _ZN11xercesc_2_711CommentImplD2Ev
                0x0000000000036928                _ZN11xercesc_2_711CommentImplD1Ev
                0x0000000000036944                _ZN11xercesc_2_711CommentImplD0Ev
                0x0000000000036958                _ZN11xercesc_2_711CommentImplC2ERKS0_b
                0x0000000000036958                _ZN11xercesc_2_711CommentImplC1ERKS0_b
                0x0000000000036974                _ZN11xercesc_2_711CommentImpl9cloneNodeEb
                0x00000000000369f6                _ZN11xercesc_2_711CommentImplC2EPNS_12DocumentImplERKNS_9DOMStringE
                0x00000000000369f6                _ZN11xercesc_2_711CommentImplC1EPNS_12DocumentImplERKNS_9DOMStringE
 *fill*         0x0000000000036a0f        0x1 90909090
 .text          0x0000000000036a10      0x6ab LINUX/depdom/DeepNodeListImpl.o
                0x0000000000036a10                _ZN11xercesc_2_716DeepNodeListImpl12unreferencedEv
                0x0000000000036a3a                _ZN11xercesc_2_716DeepNodeListImpl22reinitDeepNodeListImplEv
                0x0000000000036a64                _ZN11xercesc_2_716DeepNodeListImpl24nextMatchingElementAfterEPNS_8NodeImplE
                0x0000000000036c94                _ZN11xercesc_2_716DeepNodeListImpl9getLengthEv
                0x0000000000036cae                _ZN11xercesc_2_716DeepNodeListImpl4itemEj
                0x0000000000036d5a                _ZN11xercesc_2_716DeepNodeListImplD2Ev
                0x0000000000036d5a                _ZN11xercesc_2_716DeepNodeListImplD1Ev
                0x0000000000036de4                _ZN11xercesc_2_716DeepNodeListImplD0Ev
                0x0000000000036df8                _ZN11xercesc_2_716DeepNodeListImplC1EPNS_8NodeImplERKNS_9DOMStringES5_
                0x0000000000036df8                _ZN11xercesc_2_716DeepNodeListImplC2EPNS_8NodeImplERKNS_9DOMStringES5_
                0x0000000000036f76                _ZN11xercesc_2_716DeepNodeListImplC1EPNS_8NodeImplERKNS_9DOMStringE
                0x0000000000036f76                _ZN11xercesc_2_716DeepNodeListImplC2EPNS_8NodeImplERKNS_9DOMStringE
 *fill*         0x00000000000370bb        0x1 90909090
 .text          0x00000000000370bc      0x1cd LINUX/depdom/DocumentFragmentImpl.o
                0x00000000000370bc                _ZN11xercesc_2_720DocumentFragmentImpl11getNodeTypeEv
                0x00000000000370c2                _ZN11xercesc_2_720DocumentFragmentImpl22isDocumentFragmentImplEv
                0x00000000000370de                _ZN11xercesc_2_720DocumentFragmentImpl26reinitDocumentFragmentImplEv
                0x0000000000037108                _ZN11xercesc_2_720DocumentFragmentImpl11getNodeNameEv
                0x000000000003713e                _ZN11xercesc_2_720DocumentFragmentImplD2Ev
                0x000000000003713e                _ZN11xercesc_2_720DocumentFragmentImplD1Ev
                0x000000000003715a                _ZN11xercesc_2_720DocumentFragmentImplD0Ev
                0x000000000003716e                _ZN11xercesc_2_720DocumentFragmentImplC2ERKS0_b
                0x000000000003716e                _ZN11xercesc_2_720DocumentFragmentImplC1ERKS0_b
                0x00000000000371ee                _ZN11xercesc_2_720DocumentFragmentImpl9cloneNodeEb
                0x0000000000037270                _ZN11xercesc_2_720DocumentFragmentImplC2EPNS_12DocumentImplE
                0x0000000000037270                _ZN11xercesc_2_720DocumentFragmentImplC1EPNS_12DocumentImplE
 *fill*         0x0000000000037289        0x7 90909090
 .text          0x0000000000037290     0x2a99 LINUX/depdom/DocumentImpl.o
                0x0000000000037290                _ZN11xercesc_2_712DocumentImpl11getNodeTypeEv
                0x0000000000037296                _ZN11xercesc_2_712DocumentImpl16getOwnerDocumentEv
                0x000000000003729c                _ZN11xercesc_2_712DocumentImpl14isDocumentImplEv
                0x00000000000372a2                _ZN11xercesc_2_712DocumentImpl10getDoctypeEv
                0x00000000000372a8                _ZN11xercesc_2_712DocumentImpl18getDocumentElementEv
                0x00000000000372ae                _ZN11xercesc_2_712DocumentImpl10referencedEv
                0x00000000000372b0                _ZN11xercesc_2_712DocumentImpl9getRangesEv
                0x00000000000372b8                _ZN11xercesc_2_712DocumentImpl7isKidOKEPNS_8NodeImplES2_
                0x000000000003736e                _ZN11xercesc_2_712DocumentImpl11getUserDataEv
                0x0000000000037398                _ZN11xercesc_2_712DocumentImpl11setUserDataEPv
                0x00000000000373f0                _ZN11xercesc_2_712DocumentImpl7changedEv
                0x00000000000373f8                _ZN11xercesc_2_712DocumentImpl7changesEv
                0x0000000000037400                _ZN11xercesc_2_712DocumentImpl11getUserDataEPNS_8NodeImplE
                0x0000000000037434                _ZN11xercesc_2_712DocumentImpl18reinitDocumentImplEv
                0x000000000003745e                _ZN11xercesc_2_712DocumentImpl11setUserDataEPNS_8NodeImplEPv
                0x0000000000037578                _ZN11xercesc_2_712DocumentImpl11createRangeEv
                0x0000000000037678                _ZN11xercesc_2_712DocumentImpl13createXMLDeclERKNS_9DOMStringES3_S3_
                0x0000000000037710                _ZN11xercesc_2_712DocumentImpl20indexofQualifiedNameERKNS_9DOMStringE
                0x0000000000037784                _ZN11xercesc_2_712DocumentImpl14getElementByIdERKNS_9DOMStringE
                0x00000000000377b0                _ZN11xercesc_2_712DocumentImpl22getElementsByTagNameNSERKNS_9DOMStringES3_
                0x0000000000037838                _ZN11xercesc_2_712DocumentImpl15setDocumentTypeEPNS_16DocumentTypeImplE
                0x0000000000037958                _ZN11xercesc_2_712DocumentImpl10importNodeEPNS_8NodeImplEb
                0x0000000000038552                _ZN11xercesc_2_712DocumentImpl12unreferencedEv
                0x0000000000038560                _ZN11xercesc_2_712DocumentImpl11removeChildEPNS_8NodeImplE
                0x00000000000385b8                _ZN11xercesc_2_712DocumentImpl9isXMLNameERKNS_9DOMStringE
                0x00000000000385f4                _ZN11xercesc_2_712DocumentImpl17createAttributeNSERKNS_9DOMStringES3_
                0x0000000000038712                _ZN11xercesc_2_712DocumentImpl15createElementNSERKNS_9DOMStringES3_
                0x000000000003883c                _ZN11xercesc_2_712DocumentImpl12insertBeforeEPNS_8NodeImplES2_
                0x0000000000038970                _ZN11xercesc_2_712DocumentImpl20getElementsByTagNameERKNS_9DOMStringE
                0x00000000000389e8                _ZN11xercesc_2_712DocumentImpl16createTreeWalkerENS_8DOM_NodeEmPNS_14DOM_NodeFilterEbPNS_13MemoryManagerE
                0x0000000000038b48                _ZN11xercesc_2_712DocumentImpl18createNodeIteratorENS_8DOM_NodeEmPNS_14DOM_NodeFilterEbPNS_13MemoryManagerE
                0x0000000000038ca2                _ZN11xercesc_2_712DocumentImpl14createTextNodeERKNS_9DOMStringE
                0x0000000000038d1a                _ZN11xercesc_2_712DocumentImpl27createProcessingInstructionERKNS_9DOMStringES3_
                0x0000000000038e4e                _ZN11xercesc_2_712DocumentImpl14createNotationERKNS_9DOMStringE
                0x0000000000038f72                _ZN11xercesc_2_712DocumentImpl21createEntityReferenceERKNS_9DOMStringE
                0x0000000000039096                _ZN11xercesc_2_712DocumentImpl12createEntityERKNS_9DOMStringE
                0x00000000000391ba                _ZN11xercesc_2_712DocumentImpl13createElementEPKt
                0x000000000003924e                _ZN11xercesc_2_712DocumentImpl13createElementERKNS_9DOMStringE
                0x000000000003939e                _ZN11xercesc_2_712DocumentImpl18createDocumentTypeERKNS_9DOMStringES3_S3_
                0x00000000000394e2                _ZN11xercesc_2_712DocumentImpl18createDocumentTypeERKNS_9DOMStringE
                0x0000000000039606                _ZN11xercesc_2_712DocumentImpl22createDocumentFragmentEv
                0x000000000003966e                _ZN11xercesc_2_712DocumentImpl13createCommentERKNS_9DOMStringE
                0x00000000000396e6                _ZN11xercesc_2_712DocumentImpl18createCDATASectionERKNS_9DOMStringE
                0x000000000003975e                _ZN11xercesc_2_712DocumentImpl15createAttributeERKNS_9DOMStringE
                0x0000000000039882                _ZN11xercesc_2_712DocumentImpl11getNodeNameEv
                0x00000000000398b8                _ZN11xercesc_2_712DocumentImplD2Ev
                0x00000000000398b8                _ZN11xercesc_2_712DocumentImplD1Ev
                0x00000000000399ac                _ZN11xercesc_2_712DocumentImplD0Ev
                0x00000000000399c0                _ZN11xercesc_2_712DocumentImplC1ERKNS_9DOMStringES3_PNS_16DocumentTypeImplEPNS_13MemoryManagerE
                0x00000000000399c0                _ZN11xercesc_2_712DocumentImplC2ERKNS_9DOMStringES3_PNS_16DocumentTypeImplEPNS_13MemoryManagerE
                0x0000000000039b0a                _ZN11xercesc_2_712DocumentImplC1EPNS_13MemoryManagerE
                0x0000000000039b0a                _ZN11xercesc_2_712DocumentImplC2EPNS_13MemoryManagerE
                0x0000000000039c0c                _ZN11xercesc_2_712DocumentImpl9cloneNodeEb
                0x0000000000039cb6                _ZN11xercesc_2_712DocumentImpl11removeRangeEPNS_9RangeImplE
 *fill*         0x0000000000039d29        0x1 90909090
 .text._ZNK11xercesc_2_724IllegalArgumentException7getTypeEv
                0x0000000000039d2a        0x8 LINUX/depdom/DocumentImpl.o
                0x0000000000039d2a                _ZNK11xercesc_2_724IllegalArgumentException7getTypeEv
 .text._ZNK11xercesc_2_722NoSuchElementException7getTypeEv
                0x0000000000039d32        0x8 LINUX/depdom/DocumentImpl.o
                0x0000000000039d32                _ZNK11xercesc_2_722NoSuchElementException7getTypeEv
 .text._ZN11xercesc_2_715BaseRefVectorOfINS_16NodeIteratorImplEED2Ev
                0x0000000000039d3a        0xf LINUX/depdom/DocumentImpl.o
                0x0000000000039d3a                _ZN11xercesc_2_715BaseRefVectorOfINS_16NodeIteratorImplEED1Ev
                0x0000000000039d3a                _ZN11xercesc_2_715BaseRefVectorOfINS_16NodeIteratorImplEED2Ev
 *fill*         0x0000000000039d49        0x1 90909090
 .text._ZN11xercesc_2_715BaseRefVectorOfINS_14TreeWalkerImplEED2Ev
                0x0000000000039d4a        0xf LINUX/depdom/DocumentImpl.o
                0x0000000000039d4a                _ZN11xercesc_2_715BaseRefVectorOfINS_14TreeWalkerImplEED2Ev
                0x0000000000039d4a                _ZN11xercesc_2_715BaseRefVectorOfINS_14TreeWalkerImplEED1Ev
 *fill*         0x0000000000039d59        0x1 90909090
 .text._ZN11xercesc_2_715BaseRefVectorOfINS_9RangeImplEED2Ev
                0x0000000000039d5a        0xf LINUX/depdom/DocumentImpl.o
                0x0000000000039d5a                _ZN11xercesc_2_715BaseRefVectorOfINS_9RangeImplEED2Ev
                0x0000000000039d5a                _ZN11xercesc_2_715BaseRefVectorOfINS_9RangeImplEED1Ev
 *fill*         0x0000000000039d69        0x1 90909090
 .text._ZN11xercesc_2_715BaseRefVectorOfINS_16NodeIteratorImplEEC2EjbPNS_13MemoryManagerE
                0x0000000000039d6a       0x75 LINUX/depdom/DocumentImpl.o
                0x0000000000039d6a                _ZN11xercesc_2_715BaseRefVectorOfINS_16NodeIteratorImplEEC2EjbPNS_13MemoryManagerE
                0x0000000000039d6a                _ZN11xercesc_2_715BaseRefVectorOfINS_16NodeIteratorImplEEC1EjbPNS_13MemoryManagerE
 *fill*         0x0000000000039ddf        0x1 90909090
 .text._ZN11xercesc_2_711RefVectorOfINS_16NodeIteratorImplEEC2EjbPNS_13MemoryManagerE
                0x0000000000039de0       0x1c LINUX/depdom/DocumentImpl.o
                0x0000000000039de0                _ZN11xercesc_2_711RefVectorOfINS_16NodeIteratorImplEEC1EjbPNS_13MemoryManagerE
                0x0000000000039de0                _ZN11xercesc_2_711RefVectorOfINS_16NodeIteratorImplEEC2EjbPNS_13MemoryManagerE
 .text._ZN11xercesc_2_715BaseRefVectorOfINS_16NodeIteratorImplEE19ensureExtraCapacityEj
                0x0000000000039dfc       0x8e LINUX/depdom/DocumentImpl.o
                0x0000000000039dfc                _ZN11xercesc_2_715BaseRefVectorOfINS_16NodeIteratorImplEE19ensureExtraCapacityEj
 .text._ZN11xercesc_2_715BaseRefVectorOfINS_16NodeIteratorImplEE10addElementEPS1_
                0x0000000000039e8a       0x3c LINUX/depdom/DocumentImpl.o
                0x0000000000039e8a                _ZN11xercesc_2_715BaseRefVectorOfINS_16NodeIteratorImplEE10addElementEPS1_
 .text._ZN11xercesc_2_715BaseRefVectorOfINS_14TreeWalkerImplEEC2EjbPNS_13MemoryManagerE
                0x0000000000039ec6       0x75 LINUX/depdom/DocumentImpl.o
                0x0000000000039ec6                _ZN11xercesc_2_715BaseRefVectorOfINS_14TreeWalkerImplEEC2EjbPNS_13MemoryManagerE
                0x0000000000039ec6                _ZN11xercesc_2_715BaseRefVectorOfINS_14TreeWalkerImplEEC1EjbPNS_13MemoryManagerE
 *fill*         0x0000000000039f3b        0x1 90909090
 .text._ZN11xercesc_2_711RefVectorOfINS_14TreeWalkerImplEEC2EjbPNS_13MemoryManagerE
                0x0000000000039f3c       0x1c LINUX/depdom/DocumentImpl.o
                0x0000000000039f3c                _ZN11xercesc_2_711RefVectorOfINS_14TreeWalkerImplEEC2EjbPNS_13MemoryManagerE
                0x0000000000039f3c                _ZN11xercesc_2_711RefVectorOfINS_14TreeWalkerImplEEC1EjbPNS_13MemoryManagerE
 .text._ZN11xercesc_2_715BaseRefVectorOfINS_14TreeWalkerImplEE19ensureExtraCapacityEj
                0x0000000000039f58       0x8e LINUX/depdom/DocumentImpl.o
                0x0000000000039f58                _ZN11xercesc_2_715BaseRefVectorOfINS_14TreeWalkerImplEE19ensureExtraCapacityEj
 .text._ZN11xercesc_2_715BaseRefVectorOfINS_14TreeWalkerImplEE10addElementEPS1_
                0x0000000000039fe6       0x3c LINUX/depdom/DocumentImpl.o
                0x0000000000039fe6                _ZN11xercesc_2_715BaseRefVectorOfINS_14TreeWalkerImplEE10addElementEPS1_
 .text._ZN11xercesc_2_715BaseRefVectorOfINS_9RangeImplEEC2EjbPNS_13MemoryManagerE
                0x000000000003a022       0x75 LINUX/depdom/DocumentImpl.o
                0x000000000003a022                _ZN11xercesc_2_715BaseRefVectorOfINS_9RangeImplEEC1EjbPNS_13MemoryManagerE
                0x000000000003a022                _ZN11xercesc_2_715BaseRefVectorOfINS_9RangeImplEEC2EjbPNS_13MemoryManagerE
 *fill*         0x000000000003a097        0x1 90909090
 .text._ZN11xercesc_2_711RefVectorOfINS_9RangeImplEEC2EjbPNS_13MemoryManagerE
                0x000000000003a098       0x1c LINUX/depdom/DocumentImpl.o
                0x000000000003a098                _ZN11xercesc_2_711RefVectorOfINS_9RangeImplEEC1EjbPNS_13MemoryManagerE
                0x000000000003a098                _ZN11xercesc_2_711RefVectorOfINS_9RangeImplEEC2EjbPNS_13MemoryManagerE
 .text._ZN11xercesc_2_715BaseRefVectorOfINS_9RangeImplEE19ensureExtraCapacityEj
                0x000000000003a0b4       0x8e LINUX/depdom/DocumentImpl.o
                0x000000000003a0b4                _ZN11xercesc_2_715BaseRefVectorOfINS_9RangeImplEE19ensureExtraCapacityEj
 .text._ZN11xercesc_2_715BaseRefVectorOfINS_9RangeImplEE10addElementEPS1_
                0x000000000003a142       0x3c LINUX/depdom/DocumentImpl.o
                0x000000000003a142                _ZN11xercesc_2_715BaseRefVectorOfINS_9RangeImplEE10addElementEPS1_
 .text._ZN11xercesc_2_714RefHashTableOfIvE14findBucketElemEPKvRj
                0x000000000003a17e       0x54 LINUX/depdom/DocumentImpl.o
                0x000000000003a17e                _ZN11xercesc_2_714RefHashTableOfIvE14findBucketElemEPKvRj
 .text._ZN11xercesc_2_714RefHashTableOfIvE3getEPKv
                0x000000000003a1d2       0x23 LINUX/depdom/DocumentImpl.o
                0x000000000003a1d2                _ZN11xercesc_2_714RefHashTableOfIvE3getEPKv
 *fill*         0x000000000003a1f5        0x1 90909090
 .text._ZN11xercesc_2_712ArrayJanitorIPNS_22RefHashTableBucketElemIvEEEC2EPS3_PNS_13MemoryManagerE
                0x000000000003a1f6        0x8 LINUX/depdom/DocumentImpl.o
                0x000000000003a1f6                _ZN11xercesc_2_712ArrayJanitorIPNS_22RefHashTableBucketElemIvEEEC2EPS3_PNS_13MemoryManagerE
                0x000000000003a1f6                _ZN11xercesc_2_712ArrayJanitorIPNS_22RefHashTableBucketElemIvEEEC1EPS3_PNS_13MemoryManagerE
 .text._ZN11xercesc_2_712ArrayJanitorIPNS_22RefHashTableBucketElemIvEEE7releaseEv
                0x000000000003a1fe        0xb LINUX/depdom/DocumentImpl.o
                0x000000000003a1fe                _ZN11xercesc_2_712ArrayJanitorIPNS_22RefHashTableBucketElemIvEEE7releaseEv
 *fill*         0x000000000003a209        0x1 90909090
 .text._ZNK11xercesc_2_714RefHashTableOfIvE7isEmptyEv
                0x000000000003a20a        0x8 LINUX/depdom/DocumentImpl.o
                0x000000000003a20a                _ZNK11xercesc_2_714RefHashTableOfIvE7isEmptyEv
 .text._ZN11xercesc_2_715BaseRefVectorOfINS_9RangeImplEE17removeAllElementsEv
                0x000000000003a212       0x53 LINUX/depdom/DocumentImpl.o
                0x000000000003a212                _ZN11xercesc_2_715BaseRefVectorOfINS_9RangeImplEE17removeAllElementsEv
 *fill*         0x000000000003a265        0x1 90909090
 .text._ZN11xercesc_2_715BaseRefVectorOfINS_9RangeImplEE17removeLastElementEv
                0x000000000003a266       0x31 LINUX/depdom/DocumentImpl.o
                0x000000000003a266                _ZN11xercesc_2_715BaseRefVectorOfINS_9RangeImplEE17removeLastElementEv
 *fill*         0x000000000003a297        0x1 90909090
 .text._ZN11xercesc_2_715BaseRefVectorOfINS_9RangeImplEE7cleanupEv
                0x000000000003a298       0x4c LINUX/depdom/DocumentImpl.o
                0x000000000003a298                _ZN11xercesc_2_715BaseRefVectorOfINS_9RangeImplEE7cleanupEv
 .text._ZN11xercesc_2_715BaseRefVectorOfINS_14TreeWalkerImplEE17removeAllElementsEv
                0x000000000003a2e4       0x53 LINUX/depdom/DocumentImpl.o
                0x000000000003a2e4                _ZN11xercesc_2_715BaseRefVectorOfINS_14TreeWalkerImplEE17removeAllElementsEv
 *fill*         0x000000000003a337        0x1 90909090
 .text._ZN11xercesc_2_715BaseRefVectorOfINS_14TreeWalkerImplEE17removeLastElementEv
                0x000000000003a338       0x31 LINUX/depdom/DocumentImpl.o
                0x000000000003a338                _ZN11xercesc_2_715BaseRefVectorOfINS_14TreeWalkerImplEE17removeLastElementEv
 *fill*         0x000000000003a369        0x1 90909090
 .text._ZN11xercesc_2_715BaseRefVectorOfINS_14TreeWalkerImplEE7cleanupEv
                0x000000000003a36a       0x4c LINUX/depdom/DocumentImpl.o
                0x000000000003a36a                _ZN11xercesc_2_715BaseRefVectorOfINS_14TreeWalkerImplEE7cleanupEv
 .text._ZN11xercesc_2_715BaseRefVectorOfINS_16NodeIteratorImplEE17removeAllElementsEv
                0x000000000003a3b6       0x53 LINUX/depdom/DocumentImpl.o
                0x000000000003a3b6                _ZN11xercesc_2_715BaseRefVectorOfINS_16NodeIteratorImplEE17removeAllElementsEv
 *fill*         0x000000000003a409        0x1 90909090
 .text._ZN11xercesc_2_715BaseRefVectorOfINS_16NodeIteratorImplEE17removeLastElementEv
                0x000000000003a40a       0x31 LINUX/depdom/DocumentImpl.o
                0x000000000003a40a                _ZN11xercesc_2_715BaseRefVectorOfINS_16NodeIteratorImplEE17removeLastElementEv
 *fill*         0x000000000003a43b        0x1 90909090
 .text._ZN11xercesc_2_715BaseRefVectorOfINS_16NodeIteratorImplEE7cleanupEv
                0x000000000003a43c       0x4c LINUX/depdom/DocumentImpl.o
                0x000000000003a43c                _ZN11xercesc_2_715BaseRefVectorOfINS_16NodeIteratorImplEE7cleanupEv
 .text._ZN11xercesc_2_714RefHashTableOfIvE9removeAllEv
                0x000000000003a488       0x83 LINUX/depdom/DocumentImpl.o
                0x000000000003a488                _ZN11xercesc_2_714RefHashTableOfIvE9removeAllEv
 *fill*         0x000000000003a50b        0x1 90909090
 .text._ZN11xercesc_2_714RefHashTableOfIvE7cleanupEv
                0x000000000003a50c       0x2f LINUX/depdom/DocumentImpl.o
                0x000000000003a50c                _ZN11xercesc_2_714RefHashTableOfIvE7cleanupEv
 *fill*         0x000000000003a53b        0x1 90909090
 .text._ZN11xercesc_2_714RefHashTableOfIvED2Ev
                0x000000000003a53c        0xe LINUX/depdom/DocumentImpl.o
                0x000000000003a53c                _ZN11xercesc_2_714RefHashTableOfIvED1Ev
                0x000000000003a53c                _ZN11xercesc_2_714RefHashTableOfIvED2Ev
 .text._ZN11xercesc_2_715BaseRefVectorOfINS_9RangeImplEED0Ev
                0x000000000003a54a       0x13 LINUX/depdom/DocumentImpl.o
                0x000000000003a54a                _ZN11xercesc_2_715BaseRefVectorOfINS_9RangeImplEED0Ev
 *fill*         0x000000000003a55d        0x1 90909090
 .text._ZN11xercesc_2_715BaseRefVectorOfINS_14TreeWalkerImplEED0Ev
                0x000000000003a55e       0x13 LINUX/depdom/DocumentImpl.o
                0x000000000003a55e                _ZN11xercesc_2_715BaseRefVectorOfINS_14TreeWalkerImplEED0Ev
 *fill*         0x000000000003a571        0x1 90909090
 .text._ZN11xercesc_2_715BaseRefVectorOfINS_16NodeIteratorImplEED0Ev
                0x000000000003a572       0x13 LINUX/depdom/DocumentImpl.o
                0x000000000003a572                _ZN11xercesc_2_715BaseRefVectorOfINS_16NodeIteratorImplEED0Ev
 *fill*         0x000000000003a585        0x1 90909090
 .text._ZN11xercesc_2_711RefVectorOfINS_9RangeImplEED2Ev
                0x000000000003a586       0x77 LINUX/depdom/DocumentImpl.o
                0x000000000003a586                _ZN11xercesc_2_711RefVectorOfINS_9RangeImplEED1Ev
                0x000000000003a586                _ZN11xercesc_2_711RefVectorOfINS_9RangeImplEED2Ev
 *fill*         0x000000000003a5fd        0x1 90909090
 .text._ZN11xercesc_2_711RefVectorOfINS_9RangeImplEED0Ev
                0x000000000003a5fe       0x13 LINUX/depdom/DocumentImpl.o
                0x000000000003a5fe                _ZN11xercesc_2_711RefVectorOfINS_9RangeImplEED0Ev
 *fill*         0x000000000003a611        0x1 90909090
 .text._ZN11xercesc_2_711RefVectorOfINS_14TreeWalkerImplEED2Ev
                0x000000000003a612       0x77 LINUX/depdom/DocumentImpl.o
                0x000000000003a612                _ZN11xercesc_2_711RefVectorOfINS_14TreeWalkerImplEED2Ev
                0x000000000003a612                _ZN11xercesc_2_711RefVectorOfINS_14TreeWalkerImplEED1Ev
 *fill*         0x000000000003a689        0x1 90909090
 .text._ZN11xercesc_2_711RefVectorOfINS_14TreeWalkerImplEED0Ev
                0x000000000003a68a       0x13 LINUX/depdom/DocumentImpl.o
                0x000000000003a68a                _ZN11xercesc_2_711RefVectorOfINS_14TreeWalkerImplEED0Ev
 *fill*         0x000000000003a69d        0x1 90909090
 .text._ZN11xercesc_2_711RefVectorOfINS_16NodeIteratorImplEED2Ev
                0x000000000003a69e       0x77 LINUX/depdom/DocumentImpl.o
                0x000000000003a69e                _ZN11xercesc_2_711RefVectorOfINS_16NodeIteratorImplEED1Ev
                0x000000000003a69e                _ZN11xercesc_2_711RefVectorOfINS_16NodeIteratorImplEED2Ev
 *fill*         0x000000000003a715        0x1 90909090
 .text._ZN11xercesc_2_711RefVectorOfINS_16NodeIteratorImplEED0Ev
                0x000000000003a716       0x13 LINUX/depdom/DocumentImpl.o
                0x000000000003a716                _ZN11xercesc_2_711RefVectorOfINS_16NodeIteratorImplEED0Ev
 *fill*         0x000000000003a729        0x7 90909090
 .text._ZN11xercesc_2_714RefHashTableOfIvE10initializeEj
                0x000000000003a730       0xe9 LINUX/depdom/DocumentImpl.o
                0x000000000003a730                _ZN11xercesc_2_714RefHashTableOfIvE10initializeEj
 *fill*         0x000000000003a819        0x1 90909090
 .text._ZN11xercesc_2_714RefHashTableOfIvEC2EjbPNS_8HashBaseEPNS_13MemoryManagerE
                0x000000000003a81a       0x4f LINUX/depdom/DocumentImpl.o
                0x000000000003a81a                _ZN11xercesc_2_714RefHashTableOfIvEC1EjbPNS_8HashBaseEPNS_13MemoryManagerE
                0x000000000003a81a                _ZN11xercesc_2_714RefHashTableOfIvEC2EjbPNS_8HashBaseEPNS_13MemoryManagerE
 *fill*         0x000000000003a869        0x1 90909090
 .text._ZN11xercesc_2_724IllegalArgumentExceptionD2Ev
                0x000000000003a86a       0x1c LINUX/depdom/DocumentImpl.o
                0x000000000003a86a                _ZN11xercesc_2_724IllegalArgumentExceptionD2Ev
                0x000000000003a86a                _ZN11xercesc_2_724IllegalArgumentExceptionD1Ev
 *fill*         0x000000000003a886        0xa 90909090
 .text._ZN11xercesc_2_714RefHashTableOfIvE9removeKeyEPKv
                0x000000000003a890      0x11d LINUX/depdom/DocumentImpl.o
                0x000000000003a890                _ZN11xercesc_2_714RefHashTableOfIvE9removeKeyEPKv
 *fill*         0x000000000003a9ad        0x1 90909090
 .text._ZN11xercesc_2_722NoSuchElementExceptionD2Ev
                0x000000000003a9ae       0x1c LINUX/depdom/DocumentImpl.o
                0x000000000003a9ae                _ZN11xercesc_2_722NoSuchElementExceptionD1Ev
                0x000000000003a9ae                _ZN11xercesc_2_722NoSuchElementExceptionD2Ev
 *fill*         0x000000000003a9ca        0x6 90909090
 .text._ZN11xercesc_2_715BaseRefVectorOfINS_9RangeImplEE15removeElementAtEj
                0x000000000003a9d0      0x10b LINUX/depdom/DocumentImpl.o
                0x000000000003a9d0                _ZN11xercesc_2_715BaseRefVectorOfINS_9RangeImplEE15removeElementAtEj
 *fill*         0x000000000003aadb        0x1 90909090
 .text._ZNK11xercesc_2_724IllegalArgumentException9duplicateEv
                0x000000000003aadc       0x6e LINUX/depdom/DocumentImpl.o
                0x000000000003aadc                _ZNK11xercesc_2_724IllegalArgumentException9duplicateEv
 .text._ZNK11xercesc_2_722NoSuchElementException9duplicateEv
                0x000000000003ab4a       0x6e LINUX/depdom/DocumentImpl.o
                0x000000000003ab4a                _ZNK11xercesc_2_722NoSuchElementException9duplicateEv
 .text._ZN11xercesc_2_712ArrayJanitorIPNS_22RefHashTableBucketElemIvEEE5resetEPS3_
                0x000000000003abb8       0x4f LINUX/depdom/DocumentImpl.o
                0x000000000003abb8                _ZN11xercesc_2_712ArrayJanitorIPNS_22RefHashTableBucketElemIvEEE5resetEPS3_
 *fill*         0x000000000003ac07        0x1 90909090
 .text._ZN11xercesc_2_712ArrayJanitorIPNS_22RefHashTableBucketElemIvEEED2Ev
                0x000000000003ac08       0x13 LINUX/depdom/DocumentImpl.o
                0x000000000003ac08                _ZN11xercesc_2_712ArrayJanitorIPNS_22RefHashTableBucketElemIvEEED1Ev
                0x000000000003ac08                _ZN11xercesc_2_712ArrayJanitorIPNS_22RefHashTableBucketElemIvEEED2Ev
 *fill*         0x000000000003ac1b        0x1 90909090
 .text._ZN11xercesc_2_714RefHashTableOfIvE6rehashEv
                0x000000000003ac1c       0xf3 LINUX/depdom/DocumentImpl.o
                0x000000000003ac1c                _ZN11xercesc_2_714RefHashTableOfIvE6rehashEv
 *fill*         0x000000000003ad0f        0x1 90909090
 .text._ZN11xercesc_2_714RefHashTableOfIvE3putEPvS2_
                0x000000000003ad10       0xb7 LINUX/depdom/DocumentImpl.o
                0x000000000003ad10                _ZN11xercesc_2_714RefHashTableOfIvE3putEPvS2_
 *fill*         0x000000000003adc7        0x1 90909090
 .text._ZN11xercesc_2_722NoSuchElementExceptionD0Ev
                0x000000000003adc8       0x21 LINUX/depdom/DocumentImpl.o
                0x000000000003adc8                _ZN11xercesc_2_722NoSuchElementExceptionD0Ev
 *fill*         0x000000000003ade9        0x1 90909090
 .text._ZN11xercesc_2_724IllegalArgumentExceptionD0Ev
                0x000000000003adea       0x21 LINUX/depdom/DocumentImpl.o
                0x000000000003adea                _ZN11xercesc_2_724IllegalArgumentExceptionD0Ev
 *fill*         0x000000000003ae0b        0x5 90909090
 .text._ZN11xercesc_2_715BaseRefVectorOfINS_16NodeIteratorImplEE12setElementAtEPS1_j
                0x000000000003ae10       0xdf LINUX/depdom/DocumentImpl.o
                0x000000000003ae10                _ZN11xercesc_2_715BaseRefVectorOfINS_16NodeIteratorImplEE12setElementAtEPS1_j
 *fill*         0x000000000003aeef        0x1 90909090
 .text._ZN11xercesc_2_715BaseRefVectorOfINS_9RangeImplEE12setElementAtEPS1_j
                0x000000000003aef0       0xdf LINUX/depdom/DocumentImpl.o
                0x000000000003aef0                _ZN11xercesc_2_715BaseRefVectorOfINS_9RangeImplEE12setElementAtEPS1_j
 *fill*         0x000000000003afcf        0x1 90909090
 .text._ZN11xercesc_2_715BaseRefVectorOfINS_14TreeWalkerImplEE12setElementAtEPS1_j
                0x000000000003afd0       0xdf LINUX/depdom/DocumentImpl.o
                0x000000000003afd0                _ZN11xercesc_2_715BaseRefVectorOfINS_14TreeWalkerImplEE12setElementAtEPS1_j
 *fill*         0x000000000003b0af        0x1 90909090
 .text._ZN11xercesc_2_715BaseRefVectorOfINS_14TreeWalkerImplEE15removeElementAtEj
                0x000000000003b0b0      0x10b LINUX/depdom/DocumentImpl.o
                0x000000000003b0b0                _ZN11xercesc_2_715BaseRefVectorOfINS_14TreeWalkerImplEE15removeElementAtEj
 *fill*         0x000000000003b1bb        0x5 90909090
 .text._ZN11xercesc_2_715BaseRefVectorOfINS_16NodeIteratorImplEE15removeElementAtEj
                0x000000000003b1c0      0x10b LINUX/depdom/DocumentImpl.o
                0x000000000003b1c0                _ZN11xercesc_2_715BaseRefVectorOfINS_16NodeIteratorImplEE15removeElementAtEj
 *fill*         0x000000000003b2cb        0x5 90909090
 .text          0x000000000003b2d0      0xa2c LINUX/depdom/DocumentTypeImpl.o
                0x000000000003b2d0                _ZN11xercesc_2_716DocumentTypeImpl11getNodeTypeEv
                0x000000000003b2d6                _ZN11xercesc_2_716DocumentTypeImpl11getEntitiesEv
                0x000000000003b2dc                _ZN11xercesc_2_716DocumentTypeImpl11getElementsEv
                0x000000000003b2e2                _ZN11xercesc_2_716DocumentTypeImpl12getNotationsEv
                0x000000000003b2e8                _ZN11xercesc_2_716DocumentTypeImpl18isDocumentTypeImplEv
                0x000000000003b2ee                _ZN11xercesc_2_716DocumentTypeImpl18isIntSubsetReadingEv
                0x000000000003b2f6                _ZN11xercesc_2_716DocumentTypeImpl17setInternalSubsetERKNS_9DOMStringE
                0x000000000003b36c                _ZN11xercesc_2_716DocumentTypeImpl11setSystemIdERKNS_9DOMStringE
                0x000000000003b3e2                _ZN11xercesc_2_716DocumentTypeImpl11setPublicIdERKNS_9DOMStringE
                0x000000000003b454                _ZN11xercesc_2_716DocumentTypeImpl17getInternalSubsetEv
                0x000000000003b46a                _ZN11xercesc_2_716DocumentTypeImpl11getSystemIdEv
                0x000000000003b47c                _ZN11xercesc_2_716DocumentTypeImpl11getPublicIdEv
                0x000000000003b48e                _ZN11xercesc_2_716DocumentTypeImpl7getNameEv
                0x000000000003b4a0                _ZN11xercesc_2_716DocumentTypeImpl11getNodeNameEv
                0x000000000003b4b2                _ZN11xercesc_2_716DocumentTypeImpl11setReadOnlyEbb
                0x000000000003b4f2                _ZN11xercesc_2_716DocumentTypeImpl16setOwnerDocumentEPNS_12DocumentImplE
                0x000000000003b53a                _ZN11xercesc_2_716DocumentTypeImplD1Ev
                0x000000000003b53a                _ZN11xercesc_2_716DocumentTypeImplD2Ev
                0x000000000003b64a                _ZN11xercesc_2_716DocumentTypeImplD0Ev
                0x000000000003b65e                _ZN11xercesc_2_716DocumentTypeImplC1ERKS0_b
                0x000000000003b65e                _ZN11xercesc_2_716DocumentTypeImplC2ERKS0_b
                0x000000000003b866                _ZN11xercesc_2_716DocumentTypeImpl9cloneNodeEb
                0x000000000003b8c6                _ZN11xercesc_2_716DocumentTypeImplC2EPNS_12DocumentImplERKNS_9DOMStringES5_S5_
                0x000000000003b8c6                _ZN11xercesc_2_716DocumentTypeImplC1EPNS_12DocumentImplERKNS_9DOMStringES5_S5_
                0x000000000003bb34                _ZN11xercesc_2_716DocumentTypeImplC1EPNS_12DocumentImplERKNS_9DOMStringE
                0x000000000003bb34                _ZN11xercesc_2_716DocumentTypeImplC2EPNS_12DocumentImplERKNS_9DOMStringE
 .text          0x000000000003bcfc      0x112 LINUX/depdom/DOM_Attr.o
                0x000000000003bcfc                _ZNK11xercesc_2_78DOM_Attr12getSpecifiedEv
                0x000000000003bd12                _ZNK11xercesc_2_78DOM_Attr8getValueEv
                0x000000000003bd28                _ZN11xercesc_2_78DOM_Attr8setValueERKNS_9DOMStringE
                0x000000000003bd3e                _ZNK11xercesc_2_78DOM_Attr15getOwnerElementEv
                0x000000000003bd5a                _ZNK11xercesc_2_78DOM_Attr7getNameEv
                0x000000000003bdb4                _ZN11xercesc_2_78DOM_AttraSEPKNS_11DOM_NullPtrE
                0x000000000003bdc2                _ZN11xercesc_2_78DOM_AttraSERKS0_
                0x000000000003bdd0                _ZN11xercesc_2_78DOM_AttrD2Ev
                0x000000000003bdd0                _ZN11xercesc_2_78DOM_AttrD1Ev
                0x000000000003bdde                _ZN11xercesc_2_78DOM_AttrC2EPNS_8AttrImplE
                0x000000000003bdde                _ZN11xercesc_2_78DOM_AttrC1EPNS_8AttrImplE
                0x000000000003bdec                _ZN11xercesc_2_78DOM_AttrC2Ev
                0x000000000003bdec                _ZN11xercesc_2_78DOM_AttrC1Ev
                0x000000000003be00                _ZN11xercesc_2_78DOM_AttrC1ERKS0_
                0x000000000003be00                _ZN11xercesc_2_78DOM_AttrC2ERKS0_
 *fill*         0x000000000003be0e        0x2 90909090
 .text          0x000000000003be10       0x5a LINUX/depdom/DOM_CDATASection.o
                0x000000000003be10                _ZN11xercesc_2_716DOM_CDATASectionaSEPKNS_11DOM_NullPtrE
                0x000000000003be1e                _ZN11xercesc_2_716DOM_CDATASectionaSERKS0_
                0x000000000003be2c                _ZN11xercesc_2_716DOM_CDATASectionD1Ev
                0x000000000003be2c                _ZN11xercesc_2_716DOM_CDATASectionD2Ev
                0x000000000003be3a                _ZN11xercesc_2_716DOM_CDATASectionC1EPNS_16CDATASectionImplE
                0x000000000003be3a                _ZN11xercesc_2_716DOM_CDATASectionC2EPNS_16CDATASectionImplE
                0x000000000003be48                _ZN11xercesc_2_716DOM_CDATASectionC2Ev
                0x000000000003be48                _ZN11xercesc_2_716DOM_CDATASectionC1Ev
                0x000000000003be5c                _ZN11xercesc_2_716DOM_CDATASectionC1ERKS0_
                0x000000000003be5c                _ZN11xercesc_2_716DOM_CDATASectionC2ERKS0_
 *fill*         0x000000000003be6a        0x2 90909090
 .text          0x000000000003be6c      0x113 LINUX/depdom/DOM_CharacterData.o
                0x000000000003be6c                _ZN11xercesc_2_717DOM_CharacterData7setDataERKNS_9DOMStringE
                0x000000000003be82                _ZNK11xercesc_2_717DOM_CharacterData9getLengthEv
                0x000000000003be98                _ZNK11xercesc_2_717DOM_CharacterData13substringDataEjj
                0x000000000003beae                _ZN11xercesc_2_717DOM_CharacterData10appendDataERKNS_9DOMStringE
                0x000000000003bec4                _ZN11xercesc_2_717DOM_CharacterData10insertDataEjRKNS_9DOMStringE
                0x000000000003beda                _ZN11xercesc_2_717DOM_CharacterData10deleteDataEjj
                0x000000000003bef0                _ZN11xercesc_2_717DOM_CharacterData11replaceDataEjjRKNS_9DOMStringE
                0x000000000003bf06                _ZNK11xercesc_2_717DOM_CharacterData7getDataEv
                0x000000000003bf26                _ZN11xercesc_2_717DOM_CharacterDataaSEPKNS_11DOM_NullPtrE
                0x000000000003bf34                _ZN11xercesc_2_717DOM_CharacterDataaSERKS0_
                0x000000000003bf42                _ZN11xercesc_2_717DOM_CharacterDataD2Ev
                0x000000000003bf42                _ZN11xercesc_2_717DOM_CharacterDataD1Ev
                0x000000000003bf50                _ZN11xercesc_2_717DOM_CharacterDataC1ERKS0_
                0x000000000003bf50                _ZN11xercesc_2_717DOM_CharacterDataC2ERKS0_
                0x000000000003bf5e                _ZN11xercesc_2_717DOM_CharacterDataC2EPNS_17CharacterDataImplE
                0x000000000003bf5e                _ZN11xercesc_2_717DOM_CharacterDataC1EPNS_17CharacterDataImplE
                0x000000000003bf6c                _ZN11xercesc_2_717DOM_CharacterDataC1Ev
                0x000000000003bf6c                _ZN11xercesc_2_717DOM_CharacterDataC2Ev
 *fill*         0x000000000003bf7f        0x1 90909090
 .text          0x000000000003bf80       0x5a LINUX/depdom/DOM_Comment.o
                0x000000000003bf80                _ZN11xercesc_2_711DOM_CommentaSEPKNS_11DOM_NullPtrE
                0x000000000003bf8e                _ZN11xercesc_2_711DOM_CommentaSERKS0_
                0x000000000003bf9c                _ZN11xercesc_2_711DOM_CommentD1Ev
                0x000000000003bf9c                _ZN11xercesc_2_711DOM_CommentD2Ev
                0x000000000003bfaa                _ZN11xercesc_2_711DOM_CommentC1EPNS_11CommentImplE
                0x000000000003bfaa                _ZN11xercesc_2_711DOM_CommentC2EPNS_11CommentImplE
                0x000000000003bfb8                _ZN11xercesc_2_711DOM_CommentC2Ev
                0x000000000003bfb8                _ZN11xercesc_2_711DOM_CommentC1Ev
                0x000000000003bfcc                _ZN11xercesc_2_711DOM_CommentC1ERKS0_
                0x000000000003bfcc                _ZN11xercesc_2_711DOM_CommentC2ERKS0_
 *fill*         0x000000000003bfda        0x2 90909090
 .text          0x000000000003bfdc       0x5a LINUX/depdom/DOM_DocumentFragment.o
                0x000000000003bfdc                _ZN11xercesc_2_720DOM_DocumentFragmentaSEPKNS_11DOM_NullPtrE
                0x000000000003bfea                _ZN11xercesc_2_720DOM_DocumentFragmentaSERKS0_
                0x000000000003bff8                _ZN11xercesc_2_720DOM_DocumentFragmentD1Ev
                0x000000000003bff8                _ZN11xercesc_2_720DOM_DocumentFragmentD2Ev
                0x000000000003c006                _ZN11xercesc_2_720DOM_DocumentFragmentC1EPNS_20DocumentFragmentImplE
                0x000000000003c006                _ZN11xercesc_2_720DOM_DocumentFragmentC2EPNS_20DocumentFragmentImplE
                0x000000000003c014                _ZN11xercesc_2_720DOM_DocumentFragmentC1Ev
                0x000000000003c014                _ZN11xercesc_2_720DOM_DocumentFragmentC2Ev
                0x000000000003c028                _ZN11xercesc_2_720DOM_DocumentFragmentC2ERKS0_
                0x000000000003c028                _ZN11xercesc_2_720DOM_DocumentFragmentC1ERKS0_
 *fill*         0x000000000003c036        0x2 90909090
 .text          0x000000000003c038      0x598 LINUX/depdom/DOM_Document.o
                0x000000000003c038                _ZN11xercesc_2_712DOM_Document16setErrorCheckingEb
                0x000000000003c044                _ZN11xercesc_2_712DOM_Document16getErrorCheckingEv
                0x000000000003c050                _ZN11xercesc_2_712DOM_Document11createRangeEv
                0x000000000003c070                _ZN11xercesc_2_712DOM_Document13createXMLDeclERKNS_9DOMStringES3_S3_
                0x000000000003c09c                _ZN11xercesc_2_712DOM_Document14getElementByIdERKNS_9DOMStringE
                0x000000000003c0c0                _ZN11xercesc_2_712DOM_Document15createElementNSERKNS_9DOMStringES3_
                0x000000000003c0ea                _ZN11xercesc_2_712DOM_Document13createElementEPKt
                0x000000000003c10e                _ZN11xercesc_2_712DOM_Document13createElementERKNS_9DOMStringE
                0x000000000003c132                _ZNK11xercesc_2_712DOM_Document18getDocumentElementEv
                0x000000000003c152                _ZNK11xercesc_2_712DOM_Document22getElementsByTagNameNSERKNS_9DOMStringES3_
                0x000000000003c17c                _ZNK11xercesc_2_712DOM_Document20getElementsByTagNameERKNS_9DOMStringE
                0x000000000003c1a0                _ZN11xercesc_2_712DOM_Document17createAttributeNSERKNS_9DOMStringES3_
                0x000000000003c1ca                _ZN11xercesc_2_712DOM_Document15createAttributeERKNS_9DOMStringE
                0x000000000003c1ee                _ZN11xercesc_2_712DOM_Document10importNodeERKNS_8DOM_NodeEb
                0x000000000003c218                _ZN11xercesc_2_712DOM_Document16createTreeWalkerENS_8DOM_NodeEmPNS_14DOM_NodeFilterEb
                0x000000000003c2ce                _ZN11xercesc_2_712DOM_Document18createNodeIteratorENS_8DOM_NodeEmPNS_14DOM_NodeFilterEb
                0x000000000003c384                _ZN11xercesc_2_712DOM_Document21createEntityReferenceERKNS_9DOMStringE
                0x000000000003c3a8                _ZN11xercesc_2_712DOM_Document27createProcessingInstructionERKNS_9DOMStringES3_
                0x000000000003c3d2                _ZN11xercesc_2_712DOM_Document18createCDATASectionERKNS_9DOMStringE
                0x000000000003c3f6                _ZN11xercesc_2_712DOM_Document13createCommentERKNS_9DOMStringE
                0x000000000003c41a                _ZN11xercesc_2_712DOM_Document14createTextNodeERKNS_9DOMStringE
                0x000000000003c43e                _ZN11xercesc_2_712DOM_Document18createDocumentTypeERKNS_9DOMStringE
                0x000000000003c462                _ZNK11xercesc_2_712DOM_Document10getDoctypeEv
                0x000000000003c482                _ZN11xercesc_2_712DOM_Document22createDocumentFragmentEv
                0x000000000003c4a2                _ZN11xercesc_2_712DOM_Document12createEntityERKNS_9DOMStringE
                0x000000000003c4c6                _ZNK11xercesc_2_712DOM_Document17getImplementationEv
                0x000000000003c4d4                _ZN11xercesc_2_712DOM_Document14createNotationERKNS_9DOMStringE
                0x000000000003c4f8                _ZN11xercesc_2_712DOM_DocumentaSEPKNS_11DOM_NullPtrE
                0x000000000003c506                _ZN11xercesc_2_712DOM_DocumentaSERKS0_
                0x000000000003c514                _ZN11xercesc_2_712DOM_DocumentD2Ev
                0x000000000003c514                _ZN11xercesc_2_712DOM_DocumentD1Ev
                0x000000000003c522                _ZN11xercesc_2_712DOM_DocumentC1ERKS0_
                0x000000000003c522                _ZN11xercesc_2_712DOM_DocumentC2ERKS0_
                0x000000000003c530                _ZN11xercesc_2_712DOM_DocumentC1Ev
                0x000000000003c530                _ZN11xercesc_2_712DOM_DocumentC2Ev
                0x000000000003c544                _ZN11xercesc_2_712DOM_DocumentC1EPNS_12DocumentImplE
                0x000000000003c544                _ZN11xercesc_2_712DOM_DocumentC2EPNS_12DocumentImplE
                0x000000000003c552                _ZN11xercesc_2_712DOM_Document14createDocumentEPNS_13MemoryManagerE
 .text          0x000000000003c5d0      0x216 LINUX/depdom/DOM_DocumentType.o
                0x000000000003c5d0                _ZNK11xercesc_2_716DOM_DocumentType17getInternalSubsetEv
                0x000000000003c62a                _ZNK11xercesc_2_716DOM_DocumentType11getSystemIdEv
                0x000000000003c684                _ZNK11xercesc_2_716DOM_DocumentType11getPublicIdEv
                0x000000000003c6de                _ZNK11xercesc_2_716DOM_DocumentType7getNameEv
                0x000000000003c738                _ZNK11xercesc_2_716DOM_DocumentType12getNotationsEv
                0x000000000003c758                _ZNK11xercesc_2_716DOM_DocumentType11getEntitiesEv
                0x000000000003c778                _ZN11xercesc_2_716DOM_DocumentTypeaSEPKNS_11DOM_NullPtrE
                0x000000000003c786                _ZN11xercesc_2_716DOM_DocumentTypeaSERKS0_
                0x000000000003c794                _ZN11xercesc_2_716DOM_DocumentTypeD2Ev
                0x000000000003c794                _ZN11xercesc_2_716DOM_DocumentTypeD1Ev
                0x000000000003c7a2                _ZN11xercesc_2_716DOM_DocumentTypeC1EPNS_16DocumentTypeImplE
                0x000000000003c7a2                _ZN11xercesc_2_716DOM_DocumentTypeC2EPNS_16DocumentTypeImplE
                0x000000000003c7b0                _ZN11xercesc_2_716DOM_DocumentTypeC2Ei
                0x000000000003c7b0                _ZN11xercesc_2_716DOM_DocumentTypeC1Ei
                0x000000000003c7c4                _ZN11xercesc_2_716DOM_DocumentTypeC1Ev
                0x000000000003c7c4                _ZN11xercesc_2_716DOM_DocumentTypeC2Ev
                0x000000000003c7d8                _ZN11xercesc_2_716DOM_DocumentTypeC2ERKS0_
                0x000000000003c7d8                _ZN11xercesc_2_716DOM_DocumentTypeC1ERKS0_
 *fill*         0x000000000003c7e6        0x2 90909090
 .text          0x000000000003c7e8       0xe3 LINUX/depdom/DOM_DOMException.o
                0x000000000003c7e8                _ZN11xercesc_2_716DOM_DOMExceptionD1Ev
                0x000000000003c7e8                _ZN11xercesc_2_716DOM_DOMExceptionD2Ev
                0x000000000003c808                _ZN11xercesc_2_716DOM_DOMExceptionD0Ev
                0x000000000003c81c                _ZN11xercesc_2_716DOM_DOMExceptionC1ERKS0_
                0x000000000003c81c                _ZN11xercesc_2_716DOM_DOMExceptionC2ERKS0_
                0x000000000003c860                _ZN11xercesc_2_716DOM_DOMExceptionC2EsRKNS_9DOMStringE
                0x000000000003c860                _ZN11xercesc_2_716DOM_DOMExceptionC1EsRKNS_9DOMStringE
                0x000000000003c8a2                _ZN11xercesc_2_716DOM_DOMExceptionC2Ev
                0x000000000003c8a2                _ZN11xercesc_2_716DOM_DOMExceptionC1Ev
 *fill*         0x000000000003c8cb        0x5 90909090
 .text          0x000000000003c8d0      0x69d LINUX/depdom/DOM_DOMImplementation.o
                0x000000000003c8d0                _ZN11xercesc_2_721DOM_DOMImplementationC1Ev
                0x000000000003c8d0                _ZN11xercesc_2_721DOM_DOMImplementationC2Ev
                0x000000000003c8d2                _ZN11xercesc_2_721DOM_DOMImplementationC1ERKS0_
                0x000000000003c8d2                _ZN11xercesc_2_721DOM_DOMImplementationC2ERKS0_
                0x000000000003c8d4                _ZN11xercesc_2_721DOM_DOMImplementationD1Ev
                0x000000000003c8d4                _ZN11xercesc_2_721DOM_DOMImplementationD2Ev
                0x000000000003c8d6                _ZN11xercesc_2_721DOM_DOMImplementationaSERKS0_
                0x000000000003c91a                _ZN11xercesc_2_721DOM_DOMImplementation27reinitDOM_DOMImplementationEv
                0x000000000003ca08                _ZN11xercesc_2_721DOM_DOMImplementation14createDocumentERKNS_9DOMStringES3_RKNS_16DOM_DocumentTypeEPNS_13MemoryManagerE
                0x000000000003caca                _ZN11xercesc_2_721DOM_DOMImplementation18createDocumentTypeERKNS_9DOMStringES3_S3_
                0x000000000003cc54                _ZN11xercesc_2_721DOM_DOMImplementation10hasFeatureERKNS_9DOMStringES3_
                0x000000000003ce88                _ZN11xercesc_2_721DOM_DOMImplementation17getImplementationEv
 *fill*         0x000000000003cf6d        0x3 90909090
 .text          0x000000000003cf70      0x2fa LINUX/depdom/DOM_Element.o
                0x000000000003cf70                _ZN11xercesc_2_711DOM_Element12setAttributeERKNS_9DOMStringES3_
                0x000000000003cf86                _ZN11xercesc_2_711DOM_Element15removeAttributeERKNS_9DOMStringE
                0x000000000003cf9c                _ZN11xercesc_2_711DOM_Element14setAttributeNSERKNS_9DOMStringES3_S3_
                0x000000000003cfb2                _ZN11xercesc_2_711DOM_Element17removeAttributeNSERKNS_9DOMStringES3_
                0x000000000003cfc8                _ZNK11xercesc_2_711DOM_Element13hasAttributesEv
                0x000000000003cfde                _ZNK11xercesc_2_711DOM_Element12hasAttributeERKNS_9DOMStringE
                0x000000000003cff4                _ZNK11xercesc_2_711DOM_Element14hasAttributeNSERKNS_9DOMStringES3_
                0x000000000003d00a                _ZNK11xercesc_2_711DOM_Element22getElementsByTagNameNSERKNS_9DOMStringES3_
                0x000000000003d034                _ZNK11xercesc_2_711DOM_Element20getElementsByTagNameERKNS_9DOMStringE
                0x000000000003d058                _ZN11xercesc_2_711DOM_Element18setAttributeNodeNSENS_8DOM_AttrE
                0x000000000003d07c                _ZNK11xercesc_2_711DOM_Element18getAttributeNodeNSERKNS_9DOMStringES3_
                0x000000000003d0a6                _ZN11xercesc_2_711DOM_Element19removeAttributeNodeENS_8DOM_AttrE
                0x000000000003d0ca                _ZN11xercesc_2_711DOM_Element16setAttributeNodeENS_8DOM_AttrE
                0x000000000003d0ee                _ZNK11xercesc_2_711DOM_Element16getAttributeNodeERKNS_9DOMStringE
                0x000000000003d112                _ZNK11xercesc_2_711DOM_Element14getAttributeNSERKNS_9DOMStringES3_
                0x000000000003d15c                _ZNK11xercesc_2_711DOM_Element12getAttributeERKNS_9DOMStringE
                0x000000000003d1b6                _ZNK11xercesc_2_711DOM_Element10getTagNameEv
                0x000000000003d210                _ZN11xercesc_2_711DOM_ElementaSEPKNS_11DOM_NullPtrE
                0x000000000003d21e                _ZN11xercesc_2_711DOM_ElementaSERKS0_
                0x000000000003d22c                _ZN11xercesc_2_711DOM_ElementD2Ev
                0x000000000003d22c                _ZN11xercesc_2_711DOM_ElementD1Ev
                0x000000000003d23a                _ZN11xercesc_2_711DOM_ElementC2EPNS_11ElementImplE
                0x000000000003d23a                _ZN11xercesc_2_711DOM_ElementC1EPNS_11ElementImplE
                0x000000000003d248                _ZN11xercesc_2_711DOM_ElementC1Ev
                0x000000000003d248                _ZN11xercesc_2_711DOM_ElementC2Ev
                0x000000000003d25c                _ZN11xercesc_2_711DOM_ElementC2ERKS0_
                0x000000000003d25c                _ZN11xercesc_2_711DOM_ElementC1ERKS0_
 *fill*         0x000000000003d26a        0x2 90909090
 .text          0x000000000003d26c      0x210 LINUX/depdom/DOM_Entity.o
                0x000000000003d26c                _ZNK11xercesc_2_710DOM_Entity13hasChildNodesEv
                0x000000000003d282                _ZNK11xercesc_2_710DOM_Entity14getNextSiblingEv
                0x000000000003d2a2                _ZNK11xercesc_2_710DOM_Entity18getPreviousSiblingEv
                0x000000000003d2c2                _ZNK11xercesc_2_710DOM_Entity12getLastChildEv
                0x000000000003d2e2                _ZNK11xercesc_2_710DOM_Entity13getFirstChildEv
                0x000000000003d302                _ZNK11xercesc_2_710DOM_Entity13getChildNodesEv
                0x000000000003d314                _ZNK11xercesc_2_710DOM_Entity15getNotationNameEv
                0x000000000003d36e                _ZNK11xercesc_2_710DOM_Entity11getSystemIdEv
                0x000000000003d3c8                _ZNK11xercesc_2_710DOM_Entity11getPublicIdEv
                0x000000000003d422                _ZN11xercesc_2_710DOM_EntityaSEPKNS_11DOM_NullPtrE
                0x000000000003d430                _ZN11xercesc_2_710DOM_EntityaSERKS0_
                0x000000000003d43e                _ZN11xercesc_2_710DOM_EntityD1Ev
                0x000000000003d43e                _ZN11xercesc_2_710DOM_EntityD2Ev
                0x000000000003d44c                _ZN11xercesc_2_710DOM_EntityC1EPNS_10EntityImplE
                0x000000000003d44c                _ZN11xercesc_2_710DOM_EntityC2EPNS_10EntityImplE
                0x000000000003d45a                _ZN11xercesc_2_710DOM_EntityC2Ev
                0x000000000003d45a                _ZN11xercesc_2_710DOM_EntityC1Ev
                0x000000000003d46e                _ZN11xercesc_2_710DOM_EntityC1ERKS0_
                0x000000000003d46e                _ZN11xercesc_2_710DOM_EntityC2ERKS0_
 .text          0x000000000003d47c       0x5a LINUX/depdom/DOM_EntityReference.o
                0x000000000003d47c                _ZN11xercesc_2_719DOM_EntityReferenceaSEPKNS_11DOM_NullPtrE
                0x000000000003d48a                _ZN11xercesc_2_719DOM_EntityReferenceaSERKS0_
                0x000000000003d498                _ZN11xercesc_2_719DOM_EntityReferenceD2Ev
                0x000000000003d498                _ZN11xercesc_2_719DOM_EntityReferenceD1Ev
                0x000000000003d4a6                _ZN11xercesc_2_719DOM_EntityReferenceC1EPNS_19EntityReferenceImplE
                0x000000000003d4a6                _ZN11xercesc_2_719DOM_EntityReferenceC2EPNS_19EntityReferenceImplE
                0x000000000003d4b4                _ZN11xercesc_2_719DOM_EntityReferenceC1Ev
                0x000000000003d4b4                _ZN11xercesc_2_719DOM_EntityReferenceC2Ev
                0x000000000003d4c8                _ZN11xercesc_2_719DOM_EntityReferenceC2ERKS0_
                0x000000000003d4c8                _ZN11xercesc_2_719DOM_EntityReferenceC1ERKS0_
 *fill*         0x000000000003d4d6        0x2 90909090
 .text          0x000000000003d4d8      0x188 LINUX/depdom/DomMemDebug.o
                0x000000000003d4d8                _ZN11xercesc_2_711DomMemDebugC2Ev
                0x000000000003d4d8                _ZN11xercesc_2_711DomMemDebugC1Ev
                0x000000000003d538                _ZN11xercesc_2_711DomMemDebugD2Ev
                0x000000000003d538                _ZN11xercesc_2_711DomMemDebugD1Ev
                0x000000000003d53a                _ZN11xercesc_2_711DomMemDebugeqERKS0_
                0x000000000003d560                _ZN11xercesc_2_711DomMemDebugneERKS0_
                0x000000000003d572                _ZN11xercesc_2_711DomMemDebugaSERKS0_
                0x000000000003d5a2                _ZN11xercesc_2_711DomMemDebug5printEv
                0x000000000003d5e0                _ZN11xercesc_2_711DomMemDebug15printDifferenceERKS0_
 .text          0x000000000003d660      0x418 LINUX/depdom/DOM_NamedNodeMap.o
                0x000000000003d660                _ZN11xercesc_2_716DOM_NamedNodeMapC2Ev
                0x000000000003d660                _ZN11xercesc_2_716DOM_NamedNodeMapC1Ev
                0x000000000003d66e                _ZNK11xercesc_2_716DOM_NamedNodeMapeqERKS0_
                0x000000000003d678                _ZNK11xercesc_2_716DOM_NamedNodeMapneERKS0_
                0x000000000003d682                _ZNK11xercesc_2_716DOM_NamedNodeMapeqEPKNS_11DOM_NullPtrE
                0x000000000003d68a                _ZNK11xercesc_2_716DOM_NamedNodeMapneEPKNS_11DOM_NullPtrE
                0x000000000003d692                _ZNK11xercesc_2_716DOM_NamedNodeMap9getLengthEv
                0x000000000003d6ba                _ZN11xercesc_2_716DOM_NamedNodeMap17removeNamedItemNSERKNS_9DOMStringES3_
                0x000000000003d720                _ZN11xercesc_2_716DOM_NamedNodeMap14setNamedItemNSENS_8DOM_NodeE
                0x000000000003d77e                _ZN11xercesc_2_716DOM_NamedNodeMap14getNamedItemNSERKNS_9DOMStringES3_
                0x000000000003d7e4                _ZNK11xercesc_2_716DOM_NamedNodeMap4itemEj
                0x000000000003d840                _ZN11xercesc_2_716DOM_NamedNodeMap15removeNamedItemERKNS_9DOMStringE
                0x000000000003d89e                _ZN11xercesc_2_716DOM_NamedNodeMap12setNamedItemENS_8DOM_NodeE
                0x000000000003d8fc                _ZNK11xercesc_2_716DOM_NamedNodeMap12getNamedItemERKNS_9DOMStringE
                0x000000000003d95a                _ZN11xercesc_2_716DOM_NamedNodeMapaSEPKNS_11DOM_NullPtrE
                0x000000000003d98a                _ZN11xercesc_2_716DOM_NamedNodeMapD1Ev
                0x000000000003d98a                _ZN11xercesc_2_716DOM_NamedNodeMapD2Ev
                0x000000000003d9ac                _ZN11xercesc_2_716DOM_NamedNodeMapC2EPNS_16NamedNodeMapImplE
                0x000000000003d9ac                _ZN11xercesc_2_716DOM_NamedNodeMapC1EPNS_16NamedNodeMapImplE
                0x000000000003d9cc                _ZN11xercesc_2_716DOM_NamedNodeMapaSERKS0_
                0x000000000003da2e                _ZN11xercesc_2_716DOM_NamedNodeMapC1EPNS_8NodeImplE
                0x000000000003da2e                _ZN11xercesc_2_716DOM_NamedNodeMapC2EPNS_8NodeImplE
                0x000000000003da48                _ZN11xercesc_2_716DOM_NamedNodeMapC2ERKS0_
                0x000000000003da48                _ZN11xercesc_2_716DOM_NamedNodeMapC1ERKS0_
 .text          0x000000000003da78       0x33 LINUX/depdom/DOM_NodeFilter.o
                0x000000000003da78                _ZN11xercesc_2_714DOM_NodeFilterC2Ev
                0x000000000003da78                _ZN11xercesc_2_714DOM_NodeFilterC1Ev
                0x000000000003da88                _ZN11xercesc_2_714DOM_NodeFilterD2Ev
                0x000000000003da88                _ZN11xercesc_2_714DOM_NodeFilterD1Ev
                0x000000000003da98                _ZN11xercesc_2_714DOM_NodeFilterD0Ev
 *fill*         0x000000000003daab        0x1 90909090
 .text          0x000000000003daac      0x14e LINUX/depdom/DOM_NodeIterator.o
                0x000000000003daac                _ZN11xercesc_2_716DOM_NodeIteratorC1Ev
                0x000000000003daac                _ZN11xercesc_2_716DOM_NodeIteratorC2Ev
                0x000000000003dab4                _ZNK11xercesc_2_716DOM_NodeIteratorneERKS0_
                0x000000000003dabe                _ZNK11xercesc_2_716DOM_NodeIteratoreqERKS0_
                0x000000000003dac8                _ZNK11xercesc_2_716DOM_NodeIteratorneEPKNS_11DOM_NullPtrE
                0x000000000003dad0                _ZNK11xercesc_2_716DOM_NodeIteratoreqEPKNS_11DOM_NullPtrE
                0x000000000003dad8                _ZN11xercesc_2_716DOM_NodeIterator12previousNodeEv
                0x000000000003daea                _ZN11xercesc_2_716DOM_NodeIterator8nextNodeEv
                0x000000000003dafc                _ZN11xercesc_2_716DOM_NodeIterator25getExpandEntityReferencesEv
                0x000000000003db18                _ZN11xercesc_2_716DOM_NodeIterator9getFilterEv
                0x000000000003db2a                _ZN11xercesc_2_716DOM_NodeIterator13getWhatToShowEv
                0x000000000003db3c                _ZN11xercesc_2_716DOM_NodeIterator7getRootEv
                0x000000000003db4e                _ZN11xercesc_2_716DOM_NodeIterator6detachEv
                0x000000000003db60                _ZN11xercesc_2_716DOM_NodeIteratorD1Ev
                0x000000000003db60                _ZN11xercesc_2_716DOM_NodeIteratorD2Ev
                0x000000000003db76                _ZN11xercesc_2_716DOM_NodeIteratoraSEPKNS_11DOM_NullPtrE
                0x000000000003db8e                _ZN11xercesc_2_716DOM_NodeIteratoraSERKS0_
                0x000000000003dbce                _ZN11xercesc_2_716DOM_NodeIteratorC1ERKS0_
                0x000000000003dbce                _ZN11xercesc_2_716DOM_NodeIteratorC2ERKS0_
                0x000000000003dbe6                _ZN11xercesc_2_716DOM_NodeIteratorC2EPNS_16NodeIteratorImplE
                0x000000000003dbe6                _ZN11xercesc_2_716DOM_NodeIteratorC1EPNS_16NodeIteratorImplE
 *fill*         0x000000000003dbfa        0x2 90909090
 .text          0x000000000003dbfc       0xf8 LINUX/depdom/DOM_NodeList.o
                0x000000000003dbfc                _ZN11xercesc_2_712DOM_NodeListC2Ev
                0x000000000003dbfc                _ZN11xercesc_2_712DOM_NodeListC1Ev
                0x000000000003dc04                _ZNK11xercesc_2_712DOM_NodeListeqERKS0_
                0x000000000003dc0e                _ZNK11xercesc_2_712DOM_NodeListneERKS0_
                0x000000000003dc18                _ZNK11xercesc_2_712DOM_NodeListeqEPKNS_11DOM_NullPtrE
                0x000000000003dc20                _ZNK11xercesc_2_712DOM_NodeListneEPKNS_11DOM_NullPtrE
                0x000000000003dc28                _ZNK11xercesc_2_712DOM_NodeList9getLengthEv
                0x000000000003dc3a                _ZNK11xercesc_2_712DOM_NodeList4itemEj
                0x000000000003dc5a                _ZN11xercesc_2_712DOM_NodeListD1Ev
                0x000000000003dc5a                _ZN11xercesc_2_712DOM_NodeListD2Ev
                0x000000000003dc70                _ZN11xercesc_2_712DOM_NodeListaSEPKNS_11DOM_NullPtrE
                0x000000000003dc88                _ZN11xercesc_2_712DOM_NodeListaSERKS0_
                0x000000000003dcc8                _ZN11xercesc_2_712DOM_NodeListC2ERKS0_
                0x000000000003dcc8                _ZN11xercesc_2_712DOM_NodeListC1ERKS0_
                0x000000000003dce0                _ZN11xercesc_2_712DOM_NodeListC2EPNS_12NodeListImplE
                0x000000000003dce0                _ZN11xercesc_2_712DOM_NodeListC1EPNS_12NodeListImplE
 .text          0x000000000003dcf4      0x563 LINUX/depdom/DOM_Node.o
                0x000000000003dcf4                _ZN11xercesc_2_78DOM_NodeC2Ev
                0x000000000003dcf4                _ZN11xercesc_2_78DOM_NodeC1Ev
                0x000000000003dcfc                _ZNK11xercesc_2_78DOM_NodeneERKS0_
                0x000000000003dd06                _ZNK11xercesc_2_78DOM_NodeeqERKS0_
                0x000000000003dd10                _ZNK11xercesc_2_78DOM_NodeneEPKNS_11DOM_NullPtrE
                0x000000000003dd18                _ZNK11xercesc_2_78DOM_NodeeqEPKNS_11DOM_NullPtrE
                0x000000000003dd20                _ZNK11xercesc_2_78DOM_Node11getNodeTypeEv
                0x000000000003dd36                _ZNK11xercesc_2_78DOM_Node11getUserDataEv
                0x000000000003dd4c                _ZNK11xercesc_2_78DOM_Node13hasChildNodesEv
                0x000000000003dd62                _ZNK11xercesc_2_78DOM_Node6isNullEv
                0x000000000003dd6a                _ZN11xercesc_2_78DOM_Node12setNodeValueERKNS_9DOMStringE
                0x000000000003dd80                _ZN11xercesc_2_78DOM_Node11setUserDataEPv
                0x000000000003dd96                _ZN11xercesc_2_78DOM_Node9normalizeEv
                0x000000000003ddac                _ZNK11xercesc_2_78DOM_Node11isSupportedERKNS_9DOMStringES3_
                0x000000000003ddc2                _ZN11xercesc_2_78DOM_Node9setPrefixERKNS_9DOMStringE
                0x000000000003ddd8                _ZNK11xercesc_2_78DOM_Node13hasAttributesEv
                0x000000000003ddee                _ZNK11xercesc_2_78DOM_Node12getLocalNameEv
                0x000000000003de48                _ZNK11xercesc_2_78DOM_Node9getPrefixEv
                0x000000000003dea2                _ZNK11xercesc_2_78DOM_Node15getNamespaceURIEv
                0x000000000003defc                _ZNK11xercesc_2_78DOM_Node12getNodeValueEv
                0x000000000003df56                _ZNK11xercesc_2_78DOM_Node11getNodeNameEv
                0x000000000003dfb0                _ZNK11xercesc_2_78DOM_Node16getOwnerDocumentEv
                0x000000000003dfd0                _ZNK11xercesc_2_78DOM_Node13getAttributesEv
                0x000000000003e04c                _ZNK11xercesc_2_78DOM_Node13getChildNodesEv
                0x000000000003e05e                _ZN11xercesc_2_78DOM_NodeD2Ev
                0x000000000003e05e                _ZN11xercesc_2_78DOM_NodeD1Ev
                0x000000000003e074                _ZN11xercesc_2_78DOM_NodeaSEPKNS_11DOM_NullPtrE
                0x000000000003e08c                _ZN11xercesc_2_78DOM_NodeaSERKS0_
                0x000000000003e0cc                _ZN11xercesc_2_78DOM_NodeC2ERKS0_
                0x000000000003e0cc                _ZN11xercesc_2_78DOM_NodeC1ERKS0_
                0x000000000003e0e4                _ZN11xercesc_2_78DOM_NodeC2EPNS_8NodeImplE
                0x000000000003e0e4                _ZN11xercesc_2_78DOM_NodeC1EPNS_8NodeImplE
                0x000000000003e0f8                _ZN11xercesc_2_78DOM_Node11removeChildERKS0_
                0x000000000003e11c                _ZN11xercesc_2_78DOM_Node12replaceChildERKS0_S2_
                0x000000000003e146                _ZN11xercesc_2_78DOM_Node12insertBeforeERKS0_S2_
                0x000000000003e170                _ZNK11xercesc_2_78DOM_Node14getNextSiblingEv
                0x000000000003e190                _ZNK11xercesc_2_78DOM_Node18getPreviousSiblingEv
                0x000000000003e1b0                _ZNK11xercesc_2_78DOM_Node12getLastChildEv
                0x000000000003e1d0                _ZNK11xercesc_2_78DOM_Node13getFirstChildEv
                0x000000000003e1f0                _ZNK11xercesc_2_78DOM_Node13getParentNodeEv
                0x000000000003e210                _ZNK11xercesc_2_78DOM_Node9cloneNodeEb
                0x000000000003e234                _ZN11xercesc_2_78DOM_Node11appendChildERKS0_
 *fill*         0x000000000003e257        0x1 90909090
 .text          0x000000000003e258       0x86 LINUX/depdom/DOM_Notation.o
                0x000000000003e258                _ZNK11xercesc_2_712DOM_Notation11getPublicIdEv
                0x000000000003e26e                _ZNK11xercesc_2_712DOM_Notation11getSystemIdEv
                0x000000000003e284                _ZN11xercesc_2_712DOM_NotationaSEPKNS_11DOM_NullPtrE
                0x000000000003e292                _ZN11xercesc_2_712DOM_NotationaSERKS0_
                0x000000000003e2a0                _ZN11xercesc_2_712DOM_NotationD2Ev
                0x000000000003e2a0                _ZN11xercesc_2_712DOM_NotationD1Ev
                0x000000000003e2ae                _ZN11xercesc_2_712DOM_NotationC1EPNS_12NotationImplE
                0x000000000003e2ae                _ZN11xercesc_2_712DOM_NotationC2EPNS_12NotationImplE
                0x000000000003e2bc                _ZN11xercesc_2_712DOM_NotationC2Ev
                0x000000000003e2bc                _ZN11xercesc_2_712DOM_NotationC1Ev
                0x000000000003e2d0                _ZN11xercesc_2_712DOM_NotationC2ERKS0_
                0x000000000003e2d0                _ZN11xercesc_2_712DOM_NotationC1ERKS0_
 *fill*         0x000000000003e2de        0x2 90909090
 .text          0x000000000003e2e0     0x3861 LINUX/depdom/DOMParser.o
                0x000000000003e2e0                _ZNK11xercesc_2_79DOMParser12getValidatorEv
                0x000000000003e2ec                _ZNK11xercesc_2_79DOMParser15getDoNamespacesEv
                0x000000000003e2f6                _ZNK11xercesc_2_79DOMParser24getExitOnFirstFatalErrorEv
                0x000000000003e300                _ZNK11xercesc_2_79DOMParser28getValidationConstraintFatalEv
                0x000000000003e30a                _ZNK11xercesc_2_79DOMParser19getValidationSchemeEv
                0x000000000003e32a                _ZNK11xercesc_2_79DOMParser11getDoSchemaEv
                0x000000000003e334                _ZNK11xercesc_2_79DOMParser31getValidationSchemaFullCheckingEv
                0x000000000003e33e                _ZNK11xercesc_2_79DOMParser29getIdentityConstraintCheckingEv
                0x000000000003e348                _ZNK11xercesc_2_79DOMParser13getErrorCountEv
                0x000000000003e350                _ZNK11xercesc_2_79DOMParser25getExternalSchemaLocationEv
                0x000000000003e35c                _ZNK11xercesc_2_79DOMParser36getExternalNoNamespaceSchemaLocationEv
                0x000000000003e368                _ZNK11xercesc_2_79DOMParser25isCachingGrammarFromParseEv
                0x000000000003e372                _ZNK11xercesc_2_79DOMParser27isUsingCachedGrammarInParseEv
                0x000000000003e37c                _ZN11xercesc_2_79DOMParser14getRootGrammarEv
                0x000000000003e388                _ZNK11xercesc_2_79DOMParser18getCalculateSrcOfsEv
                0x000000000003e392                _ZNK11xercesc_2_79DOMParser24getStandardUriConformantEv
                0x000000000003e39c                _ZN11xercesc_2_79DOMParser15setDoNamespacesEb
                0x000000000003e3a6                _ZN11xercesc_2_79DOMParser15setErrorHandlerEPNS_12ErrorHandlerE
                0x000000000003e3ee                _ZN11xercesc_2_79DOMParser14setPSVIHandlerEPNS_11PSVIHandlerE
                0x000000000003e414                _ZN11xercesc_2_79DOMParser17setEntityResolverEPNS_14EntityResolverE
                0x000000000003e458                _ZN11xercesc_2_79DOMParser20setXMLEntityResolverEPNS_17XMLEntityResolverE
                0x000000000003e49c                _ZN11xercesc_2_79DOMParser24setExitOnFirstFatalErrorEb
                0x000000000003e4a6                _ZN11xercesc_2_79DOMParser28setValidationConstraintFatalEb
                0x000000000003e4b0                _ZN11xercesc_2_79DOMParser19setValidationSchemeENS0_10ValSchemesE
                0x000000000003e4f2                _ZN11xercesc_2_79DOMParser11setDoSchemaEb
                0x000000000003e4fc                _ZN11xercesc_2_79DOMParser31setValidationSchemaFullCheckingEb
                0x000000000003e506                _ZN11xercesc_2_79DOMParser29setIdentityConstraintCheckingEb
                0x000000000003e510                _ZN11xercesc_2_79DOMParser21cacheGrammarFromParseEb
                0x000000000003e528                _ZN11xercesc_2_79DOMParser23useCachedGrammarInParseEb
                0x000000000003e542                _ZN11xercesc_2_79DOMParser18setCalculateSrcOfsEb
                0x000000000003e54c                _ZN11xercesc_2_79DOMParser24setStandardUriConformantEb
                0x000000000003e55c                _ZN11xercesc_2_79DOMParser9parseNextERNS_13XMLPScanTokenE
                0x000000000003e56f                _ZThn8_N11xercesc_2_79DOMParser11resetErrorsEv
                0x000000000003e576                _ZN11xercesc_2_79DOMParser11resetErrorsEv
                0x000000000003e578                _ZThn16_N11xercesc_2_79DOMParser13resolveEntityEPKtS2_S2_
                0x000000000003e57e                _ZN11xercesc_2_79DOMParser13resolveEntityEPKtS2_S2_
                0x000000000003e59b                _ZThn16_N11xercesc_2_79DOMParser13resolveEntityEPNS_21XMLResourceIdentifierE
                0x000000000003e5a2                _ZN11xercesc_2_79DOMParser13resolveEntityEPNS_21XMLResourceIdentifierE
                0x000000000003e5dc                _ZNK11xercesc_2_79DOMParser15getDoValidationEv
                0x000000000003e5ec                _ZN11xercesc_2_79DOMParser15setDoValidationEb
                0x000000000003e608                _ZThn24_N11xercesc_2_79DOMParser12endIntSubsetEv
                0x000000000003e60e                _ZN11xercesc_2_79DOMParser12endIntSubsetEv
                0x000000000003e61a                _ZThn24_N11xercesc_2_79DOMParser12endExtSubsetEv
                0x000000000003e620                _ZN11xercesc_2_79DOMParser12endExtSubsetEv
                0x000000000003e622                _ZThn24_N11xercesc_2_79DOMParser12resetDocTypeEv
                0x000000000003e628                _ZN11xercesc_2_79DOMParser12resetDocTypeEv
                0x000000000003e631                _ZThn24_N11xercesc_2_79DOMParser12startAttListERKNS_14DTDElementDeclE
                0x000000000003e638                _ZN11xercesc_2_79DOMParser12startAttListERKNS_14DTDElementDeclE
                0x000000000003e63a                _ZThn24_N11xercesc_2_79DOMParser14startIntSubsetEv
                0x000000000003e640                _ZN11xercesc_2_79DOMParser14startIntSubsetEv
                0x000000000003e64c                _ZThn24_N11xercesc_2_79DOMParser14startExtSubsetEv
                0x000000000003e652                _ZN11xercesc_2_79DOMParser14startExtSubsetEv
                0x000000000003e654                _ZThn24_N11xercesc_2_79DOMParser8TextDeclEPKtS2_
                0x000000000003e65a                _ZN11xercesc_2_79DOMParser8TextDeclEPKtS2_
                0x000000000003e65c                _ZN11xercesc_2_79DOMParser22resetCachedGrammarPoolEv
                0x000000000003e66e                _ZN11xercesc_2_79DOMParser11loadGrammarEPKtsb
                0x000000000003e782                _ZThn24_N11xercesc_2_79DOMParser12notationDeclERKNS_15XMLNotationDeclEb
                0x000000000003e788                _ZN11xercesc_2_79DOMParser12notationDeclERKNS_15XMLNotationDeclEb
                0x000000000003e8bb                _ZThn24_N11xercesc_2_79DOMParser17doctypeWhitespaceEPKtj
                0x000000000003e8c2                _ZN11xercesc_2_79DOMParser17doctypeWhitespaceEPKtj
                0x000000000003e905                _ZThn24_N11xercesc_2_79DOMParser9doctypePIEPKtS2_
                0x000000000003e90c                _ZN11xercesc_2_79DOMParser9doctypePIEPKtS2_
                0x000000000003e9e6                _ZThn24_N11xercesc_2_79DOMParser14doctypeCommentEPKt
                0x000000000003e9ec                _ZN11xercesc_2_79DOMParser14doctypeCommentEPKt
                0x000000000003eac6                _ZThn24_N11xercesc_2_79DOMParser10entityDeclERKNS_13DTDEntityDeclEbb
                0x000000000003eacc                _ZN11xercesc_2_79DOMParser10entityDeclERKNS_13DTDEntityDeclEbb
                0x000000000003ef51                _ZThn24_N11xercesc_2_79DOMParser11elementDeclERKNS_14DTDElementDeclEb
                0x000000000003ef58                _ZN11xercesc_2_79DOMParser11elementDeclERKNS_14DTDElementDeclEb
                0x000000000003f04f                _ZThn24_N11xercesc_2_79DOMParser6attDefERKNS_14DTDElementDeclERKNS_9DTDAttDefEb
                0x000000000003f056                _ZN11xercesc_2_79DOMParser6attDefERKNS_14DTDElementDeclERKNS_9DTDAttDefEb
                0x000000000003f48a                _ZN11xercesc_2_79DOMParser25setExternalSchemaLocationEPKt
                0x000000000003f53b                _ZThn24_N11xercesc_2_79DOMParser11doctypeDeclERKNS_14DTDElementDeclEPKtS5_bb
                0x000000000003f542                _ZN11xercesc_2_79DOMParser11doctypeDeclERKNS_14DTDElementDeclEPKtS5_bb
                0x000000000003f66a                _ZN11xercesc_2_79DOMParser7XMLDeclEPKtS2_S2_S2_
                0x000000000003f76c                _ZN11xercesc_2_79DOMParser20startEntityReferenceERKNS_13XMLEntityDeclE
                0x000000000003f838                _ZN11xercesc_2_79DOMParser11endDocumentEv
                0x000000000003f850                _ZN11xercesc_2_79DOMParser13startDocumentEv
                0x000000000003f89a                _ZN11xercesc_2_79DOMParser19ignorableWhitespaceEPKtjb
                0x000000000003f9fe                _ZN11xercesc_2_79DOMParser5docPIEPKtS2_
                0x000000000003face                _ZN11xercesc_2_79DOMParser10docCommentEPKt
                0x000000000003fb60                _ZN11xercesc_2_79DOMParser13docCharactersEPKtjb
                0x000000000003fd3f                _ZThn8_N11xercesc_2_79DOMParser5errorEjPKtNS_16XMLErrorReporter8ErrTypesES2_S2_S2_ll
                0x000000000003fd46                _ZN11xercesc_2_79DOMParser5errorEjPKtNS_16XMLErrorReporter8ErrTypesES2_S2_S2_ll
                0x000000000003fe30                _ZN11xercesc_2_79DOMParser10useScannerEPKt
                0x000000000003fe90                _ZN11xercesc_2_79DOMParser36setExternalNoNamespaceSchemaLocationEPKc
                0x000000000003fede                _ZN11xercesc_2_79DOMParser25setExternalSchemaLocationEPKc
                0x000000000003ff2c                _ZNK11xercesc_2_79DOMParser12getSrcOffsetEv
                0x000000000003ff50                _ZNK11xercesc_2_79DOMParser10getURITextEj
                0x000000000003ff62                _ZN11xercesc_2_79DOMParser10getGrammarEPKt
                0x000000000003ff74                _ZN11xercesc_2_79DOMParser5resetEv
                0x000000000003fff6                _ZN11xercesc_2_79DOMParser13resetDocumentEv
                0x0000000000040004                _ZN11xercesc_2_79DOMParser10parseResetERNS_13XMLPScanTokenE
                0x000000000004001c                _ZN11xercesc_2_79DOMParser7cleanUpEv
                0x0000000000040080                _ZN11xercesc_2_79DOMParserD2Ev
                0x0000000000040080                _ZN11xercesc_2_79DOMParserD1Ev
                0x0000000000040193                _ZThn24_N11xercesc_2_79DOMParserD1Ev
                0x000000000004019c                _ZThn16_N11xercesc_2_79DOMParserD1Ev
                0x00000000000401a5                _ZThn8_N11xercesc_2_79DOMParserD1Ev
                0x00000000000401ae                _ZThn24_N11xercesc_2_79DOMParserD0Ev
                0x00000000000401b4                _ZThn16_N11xercesc_2_79DOMParserD0Ev
                0x00000000000401ba                _ZThn8_N11xercesc_2_79DOMParserD0Ev
                0x00000000000401c0                _ZN11xercesc_2_79DOMParserD0Ev
                0x00000000000401d4                _ZN11xercesc_2_79DOMParser10initializeEv
                0x00000000000402f0                _ZN11xercesc_2_79DOMParserC1EPNS_12XMLValidatorEPNS_13MemoryManagerEPNS_14XMLGrammarPoolE
                0x00000000000402f0                _ZN11xercesc_2_79DOMParserC2EPNS_12XMLValidatorEPNS_13MemoryManagerEPNS_14XMLGrammarPoolE
                0x00000000000404c0                _ZThn24_N11xercesc_2_79DOMParser10endAttListERKNS_14DTDElementDeclE
                0x00000000000404c6                _ZN11xercesc_2_79DOMParser10endAttListERKNS_14DTDElementDeclE
                0x00000000000409f2                _ZN11xercesc_2_79DOMParser36setExternalNoNamespaceSchemaLocationEPKt
                0x0000000000040aa4                _ZN11xercesc_2_79DOMParser12startElementERKNS_14XMLElementDeclEjPKtRKNS_11RefVectorOfINS_7XMLAttrEEEjbb
                0x0000000000041214                _ZN11xercesc_2_79DOMParser10endElementERKNS_14XMLElementDeclEjbPKt
                0x0000000000041294                _ZN11xercesc_2_79DOMParser18endEntityReferenceERKNS_13XMLEntityDeclE
                0x000000000004139e                _ZN11xercesc_2_79DOMParser10parseFirstERKNS_11InputSourceERNS_13XMLPScanTokenE
                0x0000000000041460                _ZN11xercesc_2_79DOMParser10parseFirstEPKcRNS_13XMLPScanTokenE
                0x0000000000041526                _ZN11xercesc_2_79DOMParser10parseFirstEPKtRNS_13XMLPScanTokenE
                0x00000000000415e8                _ZN11xercesc_2_79DOMParser5parseEPKc
                0x00000000000416f6                _ZN11xercesc_2_79DOMParser5parseEPKt
                0x0000000000041804                _ZN11xercesc_2_79DOMParser11loadGrammarERKNS_11InputSourceEsb
                0x000000000004191a                _ZN11xercesc_2_79DOMParser11loadGrammarEPKcsb
                0x0000000000041a32                _ZN11xercesc_2_79DOMParser5parseERKNS_11InputSourceE
 *fill*         0x0000000000041b41        0x1 90909090
 .text._ZN11xercesc_2_716XMLErrorReporterD2Ev
                0x0000000000041b42        0xf LINUX/depdom/DOMParser.o
                0x0000000000041b42                _ZN11xercesc_2_716XMLErrorReporterD2Ev
                0x0000000000041b42                _ZN11xercesc_2_716XMLErrorReporterD1Ev
 *fill*         0x0000000000041b51        0x1 90909090
 .text._ZN11xercesc_2_713XSerializableD2Ev
                0x0000000000041b52        0xf LINUX/depdom/DOMParser.o
                0x0000000000041b52                _ZN11xercesc_2_713XSerializableD2Ev
                0x0000000000041b52                _ZN11xercesc_2_713XSerializableD1Ev
 *fill*         0x0000000000041b61        0x1 90909090
 .text._ZN11xercesc_2_710XMLRefInfoD2Ev
                0x0000000000041b62       0x48 LINUX/depdom/DOMParser.o
                0x0000000000041b62                _ZN11xercesc_2_710XMLRefInfoD1Ev
                0x0000000000041b62                _ZN11xercesc_2_710XMLRefInfoD2Ev
 .text._ZNK11xercesc_2_719EmptyStackException7getTypeEv
                0x0000000000041baa        0x8 LINUX/depdom/DOMParser.o
                0x0000000000041baa                _ZNK11xercesc_2_719EmptyStackException7getTypeEv
 .text._ZNK11xercesc_2_713DTDEntityDecl22getDeclaredInIntSubsetEv
                0x0000000000041bb2        0x5 LINUX/depdom/DOMParser.o
                0x0000000000041bb2                _ZNK11xercesc_2_713DTDEntityDecl22getDeclaredInIntSubsetEv
 *fill*         0x0000000000041bb7        0x1 90909090
 .text._ZNK11xercesc_2_713DTDEntityDecl14getIsParameterEv
                0x0000000000041bb8        0x5 LINUX/depdom/DOMParser.o
                0x0000000000041bb8                _ZNK11xercesc_2_713DTDEntityDecl14getIsParameterEv
 *fill*         0x0000000000041bbd        0x1 90909090
 .text._ZNK11xercesc_2_713DTDEntityDecl16getIsSpecialCharEv
                0x0000000000041bbe        0x5 LINUX/depdom/DOMParser.o
                0x0000000000041bbe                _ZNK11xercesc_2_713DTDEntityDecl16getIsSpecialCharEv
 *fill*         0x0000000000041bc3        0x1 90909090
 .text._ZN11xercesc_2_713XMLAttDefListD2Ev
                0x0000000000041bc4        0xf LINUX/depdom/DOMParser.o
                0x0000000000041bc4                _ZN11xercesc_2_713XMLAttDefListD1Ev
                0x0000000000041bc4                _ZN11xercesc_2_713XMLAttDefListD2Ev
 *fill*         0x0000000000041bd3        0x1 90909090
 .text._ZNK11xercesc_2_711IOException7getTypeEv
                0x0000000000041bd4        0x8 LINUX/depdom/DOMParser.o
                0x0000000000041bd4                _ZNK11xercesc_2_711IOException7getTypeEv
 .text._ZN11xercesc_2_718XMLDocumentHandlerD2Ev
                0x0000000000041bdc        0xf LINUX/depdom/DOMParser.o
                0x0000000000041bdc                _ZN11xercesc_2_718XMLDocumentHandlerD2Ev
                0x0000000000041bdc                _ZN11xercesc_2_718XMLDocumentHandlerD1Ev
 *fill*         0x0000000000041beb        0x1 90909090
 .text._ZN11xercesc_2_718XMLDocumentHandler15elementTypeInfoEPKtS2_
                0x0000000000041bec        0x2 LINUX/depdom/DOMParser.o
                0x0000000000041bec                _ZN11xercesc_2_718XMLDocumentHandler15elementTypeInfoEPKtS2_
 .text._ZN11xercesc_2_716XMLEntityHandlerD2Ev
                0x0000000000041bee        0xf LINUX/depdom/DOMParser.o
                0x0000000000041bee                _ZN11xercesc_2_716XMLEntityHandlerD1Ev
                0x0000000000041bee                _ZN11xercesc_2_716XMLEntityHandlerD2Ev
 *fill*         0x0000000000041bfd        0x1 90909090
 .text._ZN11xercesc_2_714DocTypeHandlerD2Ev
                0x0000000000041bfe        0xf LINUX/depdom/DOMParser.o
                0x0000000000041bfe                _ZN11xercesc_2_714DocTypeHandlerD2Ev
                0x0000000000041bfe                _ZN11xercesc_2_714DocTypeHandlerD1Ev
 *fill*         0x0000000000041c0d        0x1 90909090
 .text._ZN11xercesc_2_79DOMParser14endInputSourceERKNS_11InputSourceE
                0x0000000000041c0e        0x8 LINUX/depdom/DOMParser.o
                0x0000000000041c0e                _ZThn16_N11xercesc_2_79DOMParser14endInputSourceERKNS_11InputSourceE
                0x0000000000041c14                _ZN11xercesc_2_79DOMParser14endInputSourceERKNS_11InputSourceE
 .text._ZN11xercesc_2_79DOMParser14expandSystemIdEPKtRNS_9XMLBufferE
                0x0000000000041c16        0xc LINUX/depdom/DOMParser.o
                0x0000000000041c16                _ZThn16_N11xercesc_2_79DOMParser14expandSystemIdEPKtRNS_9XMLBufferE
                0x0000000000041c1c                _ZN11xercesc_2_79DOMParser14expandSystemIdEPKtRNS_9XMLBufferE
 .text._ZN11xercesc_2_79DOMParser13resetEntitiesEv
                0x0000000000041c22        0x8 LINUX/depdom/DOMParser.o
                0x0000000000041c22                _ZThn16_N11xercesc_2_79DOMParser13resetEntitiesEv
                0x0000000000041c28                _ZN11xercesc_2_79DOMParser13resetEntitiesEv
 .text._ZN11xercesc_2_79DOMParser16startInputSourceERKNS_11InputSourceE
                0x0000000000041c2a        0x8 LINUX/depdom/DOMParser.o
                0x0000000000041c2a                _ZThn16_N11xercesc_2_79DOMParser16startInputSourceERKNS_11InputSourceE
                0x0000000000041c30                _ZN11xercesc_2_79DOMParser16startInputSourceERKNS_11InputSourceE
 .text._ZN11xercesc_2_715ContentSpecNodeD2Ev
                0x0000000000041c32       0x73 LINUX/depdom/DOMParser.o
                0x0000000000041c32                _ZN11xercesc_2_715ContentSpecNodeD1Ev
                0x0000000000041c32                _ZN11xercesc_2_715ContentSpecNodeD2Ev
 *fill*         0x0000000000041ca5        0x1 90909090
 .text._ZN11xercesc_2_713ValueVectorOfINS_8DOM_NodeEE17removeAllElementsEv
                0x0000000000041ca6        0x8 LINUX/depdom/DOMParser.o
                0x0000000000041ca6                _ZN11xercesc_2_713ValueVectorOfINS_8DOM_NodeEE17removeAllElementsEv
 .text._ZN11xercesc_2_712ValueStackOfINS_8DOM_NodeEE17removeAllElementsEv
                0x0000000000041cae       0x12 LINUX/depdom/DOMParser.o
                0x0000000000041cae                _ZN11xercesc_2_712ValueStackOfINS_8DOM_NodeEE17removeAllElementsEv
 .text._ZNK11xercesc_2_713ValueVectorOfINS_8DOM_NodeEE4sizeEv
                0x0000000000041cc0        0x4 LINUX/depdom/DOMParser.o
                0x0000000000041cc0                _ZNK11xercesc_2_713ValueVectorOfINS_8DOM_NodeEE4sizeEv
 .text._ZN11xercesc_2_712ValueStackOfINS_8DOM_NodeEE5emptyEv
                0x0000000000041cc4       0x17 LINUX/depdom/DOMParser.o
                0x0000000000041cc4                _ZN11xercesc_2_712ValueStackOfINS_8DOM_NodeEE5emptyEv
 *fill*         0x0000000000041cdb        0x1 90909090
 .text._ZNK11xercesc_2_713ValueVectorOfINS_8DOM_NodeEE16getMemoryManagerEv
                0x0000000000041cdc        0x5 LINUX/depdom/DOMParser.o
                0x0000000000041cdc                _ZNK11xercesc_2_713ValueVectorOfINS_8DOM_NodeEE16getMemoryManagerEv
 *fill*         0x0000000000041ce1        0x1 90909090
 .text._ZN11xercesc_2_713XSerializableD0Ev
                0x0000000000041ce2       0x1c LINUX/depdom/DOMParser.o
                0x0000000000041ce2                _ZN11xercesc_2_713XSerializableD0Ev
 .text._ZN11xercesc_2_714DocTypeHandlerD0Ev
                0x0000000000041cfe       0x1c LINUX/depdom/DOMParser.o
                0x0000000000041cfe                _ZN11xercesc_2_714DocTypeHandlerD0Ev
 .text._ZN11xercesc_2_716XMLEntityHandlerD0Ev
                0x0000000000041d1a       0x1c LINUX/depdom/DOMParser.o
                0x0000000000041d1a                _ZN11xercesc_2_716XMLEntityHandlerD0Ev
 .text._ZN11xercesc_2_716XMLErrorReporterD0Ev
                0x0000000000041d36       0x1c LINUX/depdom/DOMParser.o
                0x0000000000041d36                _ZN11xercesc_2_716XMLErrorReporterD0Ev
 .text._ZN11xercesc_2_718XMLDocumentHandlerD0Ev
                0x0000000000041d52       0x1c LINUX/depdom/DOMParser.o
                0x0000000000041d52                _ZN11xercesc_2_718XMLDocumentHandlerD0Ev
 .text._ZN11xercesc_2_713XMLAttDefListD0Ev
                0x0000000000041d6e       0x1c LINUX/depdom/DOMParser.o
                0x0000000000041d6e                _ZN11xercesc_2_713XMLAttDefListD0Ev
 .text._ZN11xercesc_2_713DTDEntityDeclD2Ev
                0x0000000000041d8a       0x1c LINUX/depdom/DOMParser.o
                0x0000000000041d8a                _ZN11xercesc_2_713DTDEntityDeclD2Ev
                0x0000000000041d8a                _ZN11xercesc_2_713DTDEntityDeclD1Ev
 .text._ZN11xercesc_2_711IOExceptionD2Ev
                0x0000000000041da6       0x1c LINUX/depdom/DOMParser.o
                0x0000000000041da6                _ZN11xercesc_2_711IOExceptionD2Ev
                0x0000000000041da6                _ZN11xercesc_2_711IOExceptionD1Ev
 .text._ZN11xercesc_2_719EmptyStackExceptionD2Ev
                0x0000000000041dc2       0x1c LINUX/depdom/DOMParser.o
                0x0000000000041dc2                _ZN11xercesc_2_719EmptyStackExceptionD1Ev
                0x0000000000041dc2                _ZN11xercesc_2_719EmptyStackExceptionD2Ev
 .text._ZNK11xercesc_2_711IOException9duplicateEv
                0x0000000000041dde       0x6e LINUX/depdom/DOMParser.o
                0x0000000000041dde                _ZNK11xercesc_2_711IOException9duplicateEv
 .text._ZNK11xercesc_2_719EmptyStackException9duplicateEv
                0x0000000000041e4c       0x6e LINUX/depdom/DOMParser.o
                0x0000000000041e4c                _ZNK11xercesc_2_719EmptyStackException9duplicateEv
 .text._ZN11xercesc_2_713ValueVectorOfINS_8DOM_NodeEED2Ev
                0x0000000000041eba       0x40 LINUX/depdom/DOMParser.o
                0x0000000000041eba                _ZN11xercesc_2_713ValueVectorOfINS_8DOM_NodeEED1Ev
                0x0000000000041eba                _ZN11xercesc_2_713ValueVectorOfINS_8DOM_NodeEED2Ev
 .text._ZN11xercesc_2_712ValueStackOfINS_8DOM_NodeEED2Ev
                0x0000000000041efa       0x12 LINUX/depdom/DOMParser.o
                0x0000000000041efa                _ZN11xercesc_2_712ValueStackOfINS_8DOM_NodeEED2Ev
                0x0000000000041efa                _ZN11xercesc_2_712ValueStackOfINS_8DOM_NodeEED1Ev
 .text._ZN11xercesc_2_713ValueVectorOfINS_8DOM_NodeEE19ensureExtraCapacityEj
                0x0000000000041f0c       0x90 LINUX/depdom/DOMParser.o
                0x0000000000041f0c                _ZN11xercesc_2_713ValueVectorOfINS_8DOM_NodeEE19ensureExtraCapacityEj
 .text._ZN11xercesc_2_713ValueVectorOfINS_8DOM_NodeEE10addElementERKS1_
                0x0000000000041f9c       0x44 LINUX/depdom/DOMParser.o
                0x0000000000041f9c                _ZN11xercesc_2_713ValueVectorOfINS_8DOM_NodeEE10addElementERKS1_
 .text._ZN11xercesc_2_712ValueStackOfINS_8DOM_NodeEE4pushERKS1_
                0x0000000000041fe0       0x12 LINUX/depdom/DOMParser.o
                0x0000000000041fe0                _ZN11xercesc_2_712ValueStackOfINS_8DOM_NodeEE4pushERKS1_
 *fill*         0x0000000000041ff2        0xe 90909090
 .text._ZN11xercesc_2_713ValueVectorOfINS_8DOM_NodeEE15removeElementAtEj
                0x0000000000042000       0xd6 LINUX/depdom/DOMParser.o
                0x0000000000042000                _ZN11xercesc_2_713ValueVectorOfINS_8DOM_NodeEE15removeElementAtEj
 .text._ZN11xercesc_2_713ValueVectorOfINS_8DOM_NodeEEC2EjPNS_13MemoryManagerEb
                0x00000000000420d6       0x45 LINUX/depdom/DOMParser.o
                0x00000000000420d6                _ZN11xercesc_2_713ValueVectorOfINS_8DOM_NodeEEC2EjPNS_13MemoryManagerEb
                0x00000000000420d6                _ZN11xercesc_2_713ValueVectorOfINS_8DOM_NodeEEC1EjPNS_13MemoryManagerEb
 *fill*         0x000000000004211b        0x1 90909090
 .text._ZN11xercesc_2_712ValueStackOfINS_8DOM_NodeEEC2EjPNS_13MemoryManagerEb
                0x000000000004211c       0x15 LINUX/depdom/DOMParser.o
                0x000000000004211c                _ZN11xercesc_2_712ValueStackOfINS_8DOM_NodeEEC2EjPNS_13MemoryManagerEb
                0x000000000004211c                _ZN11xercesc_2_712ValueStackOfINS_8DOM_NodeEEC1EjPNS_13MemoryManagerEb
 *fill*         0x0000000000042131        0x1 90909090
 .text._ZN11xercesc_2_711IOExceptionD0Ev
                0x0000000000042132       0x21 LINUX/depdom/DOMParser.o
                0x0000000000042132                _ZN11xercesc_2_711IOExceptionD0Ev
 *fill*         0x0000000000042153        0x1 90909090
 .text._ZN11xercesc_2_719EmptyStackExceptionD0Ev
                0x0000000000042154       0x21 LINUX/depdom/DOMParser.o
                0x0000000000042154                _ZN11xercesc_2_719EmptyStackExceptionD0Ev
 *fill*         0x0000000000042175        0x1 90909090
 .text._ZN11xercesc_2_713DTDEntityDeclD0Ev
                0x0000000000042176       0x21 LINUX/depdom/DOMParser.o
                0x0000000000042176                _ZN11xercesc_2_713DTDEntityDeclD0Ev
 *fill*         0x0000000000042197        0x1 90909090
 .text._ZN11xercesc_2_710XMLRefInfoD0Ev
                0x0000000000042198       0x50 LINUX/depdom/DOMParser.o
                0x0000000000042198                _ZN11xercesc_2_710XMLRefInfoD0Ev
 .text._ZN11xercesc_2_715ContentSpecNodeD0Ev
                0x00000000000421e8       0x7b LINUX/depdom/DOMParser.o
                0x00000000000421e8                _ZN11xercesc_2_715ContentSpecNodeD0Ev
 *fill*         0x0000000000042263        0xd 90909090
 .text._ZNK11xercesc_2_715BaseRefVectorOfINS_7XMLAttrEE9elementAtEj
                0x0000000000042270       0xbf LINUX/depdom/DOMParser.o
                0x0000000000042270                _ZNK11xercesc_2_715BaseRefVectorOfINS_7XMLAttrEE9elementAtEj
 *fill*         0x000000000004232f        0x1 90909090
 .text._ZN11xercesc_2_713ValueVectorOfINS_8DOM_NodeEE9elementAtEj
                0x0000000000042330       0xbf LINUX/depdom/DOMParser.o
                0x0000000000042330                _ZN11xercesc_2_713ValueVectorOfINS_8DOM_NodeEE9elementAtEj
 *fill*         0x00000000000423ef        0x1 90909090
 .text._ZN11xercesc_2_712ValueStackOfINS_8DOM_NodeEE3popEv
                0x00000000000423f0      0x10d LINUX/depdom/DOMParser.o
                0x00000000000423f0                _ZN11xercesc_2_712ValueStackOfINS_8DOM_NodeEE3popEv
 *fill*         0x00000000000424fd        0x3 90909090
 .text          0x0000000000042500      0x174 LINUX/depdom/DOM_ProcessingInstruction.o
                0x0000000000042500                _ZN11xercesc_2_725DOM_ProcessingInstruction7setDataERKNS_9DOMStringE
                0x0000000000042566                _ZNK11xercesc_2_725DOM_ProcessingInstruction7getDataEv
                0x00000000000425c0                _ZNK11xercesc_2_725DOM_ProcessingInstruction9getTargetEv
                0x000000000004261a                _ZN11xercesc_2_725DOM_ProcessingInstructionaSEPKNS_11DOM_NullPtrE
                0x0000000000042628                _ZN11xercesc_2_725DOM_ProcessingInstructionaSERKS0_
                0x0000000000042636                _ZN11xercesc_2_725DOM_ProcessingInstructionD2Ev
                0x0000000000042636                _ZN11xercesc_2_725DOM_ProcessingInstructionD1Ev
                0x0000000000042644                _ZN11xercesc_2_725DOM_ProcessingInstructionC2EPNS_25ProcessingInstructionImplE
                0x0000000000042644                _ZN11xercesc_2_725DOM_ProcessingInstructionC1EPNS_25ProcessingInstructionImplE
                0x0000000000042652                _ZN11xercesc_2_725DOM_ProcessingInstructionC2Ev
                0x0000000000042652                _ZN11xercesc_2_725DOM_ProcessingInstructionC1Ev
                0x0000000000042666                _ZN11xercesc_2_725DOM_ProcessingInstructionC1ERKS0_
                0x0000000000042666                _ZN11xercesc_2_725DOM_ProcessingInstructionC2ERKS0_
 .text          0x0000000000042674       0xca LINUX/depdom/DOM_RangeException.o
                0x0000000000042674                _ZN11xercesc_2_718DOM_RangeExceptionD2Ev
                0x0000000000042674                _ZN11xercesc_2_718DOM_RangeExceptionD1Ev
                0x0000000000042690                _ZN11xercesc_2_718DOM_RangeExceptionD0Ev
                0x00000000000426a4                _ZN11xercesc_2_718DOM_RangeExceptionC1ERKS0_
                0x00000000000426a4                _ZN11xercesc_2_718DOM_RangeExceptionC2ERKS0_
                0x00000000000426e2                _ZN11xercesc_2_718DOM_RangeExceptionC2ENS0_18RangeExceptionCodeERKNS_9DOMStringE
                0x00000000000426e2                _ZN11xercesc_2_718DOM_RangeExceptionC1ENS0_18RangeExceptionCodeERKNS_9DOMStringE
                0x000000000004271e                _ZN11xercesc_2_718DOM_RangeExceptionC1Ev
                0x000000000004271e                _ZN11xercesc_2_718DOM_RangeExceptionC2Ev
 *fill*         0x000000000004273e        0x2 90909090
 .text          0x0000000000042740      0x286 LINUX/depdom/DOM_Range.o
                0x0000000000042740                _ZN11xercesc_2_79DOM_RangeC1Ev
                0x0000000000042740                _ZN11xercesc_2_79DOM_RangeC2Ev
                0x0000000000042748                _ZNK11xercesc_2_79DOM_RangeneERKS0_
                0x0000000000042752                _ZNK11xercesc_2_79DOM_RangeeqERKS0_
                0x000000000004275c                _ZNK11xercesc_2_79DOM_RangeneEPKNS_11DOM_NullPtrE
                0x0000000000042764                _ZNK11xercesc_2_79DOM_RangeeqEPKNS_11DOM_NullPtrE
                0x000000000004276c                _ZN11xercesc_2_79DOM_Range6detachEv
                0x000000000004277e                _ZNK11xercesc_2_79DOM_Range8toStringEv
                0x0000000000042790                _ZN11xercesc_2_79DOM_Range16surroundContentsERNS_8DOM_NodeE
                0x00000000000427a2                _ZN11xercesc_2_79DOM_Range10insertNodeERNS_8DOM_NodeE
                0x00000000000427b4                _ZNK11xercesc_2_79DOM_Range13cloneContentsEv
                0x00000000000427c6                _ZN11xercesc_2_79DOM_Range15extractContentsEv
                0x00000000000427d8                _ZN11xercesc_2_79DOM_Range14deleteContentsEv
                0x00000000000427ea                _ZNK11xercesc_2_79DOM_Range21compareBoundaryPointsENS0_10CompareHowERKS0_
                0x00000000000427fe                _ZN11xercesc_2_79DOM_Range18selectNodeContentsERKNS_8DOM_NodeE
                0x0000000000042810                _ZN11xercesc_2_79DOM_Range10selectNodeERKNS_8DOM_NodeE
                0x0000000000042822                _ZNK11xercesc_2_79DOM_Range12getCollapsedEv
                0x0000000000042834                _ZN11xercesc_2_79DOM_Range8collapseEb
                0x000000000004284a                _ZN11xercesc_2_79DOM_Range11setEndAfterERKNS_8DOM_NodeE
                0x000000000004285c                _ZN11xercesc_2_79DOM_Range12setEndBeforeERKNS_8DOM_NodeE
                0x000000000004286e                _ZN11xercesc_2_79DOM_Range13setStartAfterERKNS_8DOM_NodeE
                0x0000000000042880                _ZN11xercesc_2_79DOM_Range14setStartBeforeERKNS_8DOM_NodeE
                0x0000000000042892                _ZN11xercesc_2_79DOM_Range6setEndERKNS_8DOM_NodeEj
                0x00000000000428a4                _ZN11xercesc_2_79DOM_Range8setStartERKNS_8DOM_NodeEj
                0x00000000000428b6                _ZNK11xercesc_2_79DOM_Range26getCommonAncestorContainerEv
                0x00000000000428c8                _ZNK11xercesc_2_79DOM_Range12getEndOffsetEv
                0x00000000000428da                _ZNK11xercesc_2_79DOM_Range15getEndContainerEv
                0x00000000000428ec                _ZNK11xercesc_2_79DOM_Range14getStartOffsetEv
                0x00000000000428fe                _ZNK11xercesc_2_79DOM_Range17getStartContainerEv
                0x0000000000042910                _ZN11xercesc_2_79DOM_RangeaSEPKNS_11DOM_NullPtrE
                0x0000000000042928                _ZN11xercesc_2_79DOM_RangeD2Ev
                0x0000000000042928                _ZN11xercesc_2_79DOM_RangeD1Ev
                0x000000000004293e                _ZN11xercesc_2_79DOM_RangeaSERKS0_
                0x000000000004297e                _ZN11xercesc_2_79DOM_RangeC1ERKS0_
                0x000000000004297e                _ZN11xercesc_2_79DOM_RangeC2ERKS0_
                0x0000000000042996                _ZN11xercesc_2_79DOM_RangeC1EPNS_9RangeImplE
                0x0000000000042996                _ZN11xercesc_2_79DOM_RangeC2EPNS_9RangeImplE
                0x00000000000429aa                _ZNK11xercesc_2_79DOM_Range10cloneRangeEv
 *fill*         0x00000000000429c6        0xa 90909090
 .text          0x00000000000429d0     0x18c4 LINUX/depdom/DOMString.o
                0x00000000000429d0                _ZN11xercesc_2_79DOMStringC1Ev
                0x00000000000429d0                _ZN11xercesc_2_79DOMStringC2Ev
                0x00000000000429d8                _ZN11xercesc_2_79DOMStringC1Ei
                0x00000000000429d8                _ZN11xercesc_2_79DOMStringC2Ei
                0x00000000000429e0                _ZNK11xercesc_2_79DOMStringeqERKS0_
                0x00000000000429ea                _ZNK11xercesc_2_79DOMStringneERKS0_
                0x00000000000429f4                _ZNK11xercesc_2_79DOMStringeqEPKNS_11DOM_NullPtrE
                0x00000000000429fc                _ZNK11xercesc_2_79DOMStringneEPKNS_11DOM_NullPtrE
                0x0000000000042a04                _ZNK11xercesc_2_79DOMString6charAtEj
                0x0000000000042a22                _ZNK11xercesc_2_79DOMString6equalsERKS0_
                0x0000000000042a9c                _ZNK11xercesc_2_79DOMString6equalsEPKt
                0x0000000000042b2a                _ZNK11xercesc_2_79DOMString6lengthEv
                0x0000000000042b3c                _ZNK11xercesc_2_79DOMString9rawBufferEv
                0x0000000000042b5c                _ZNK11xercesc_2_79DOMString13compareStringERKS0_
                0x0000000000042bea                _ZNK11xercesc_2_79DOMStringltERKS0_
                0x0000000000042c42                _ZN11xercesc_2_79DOMStringC1ERKS0_
                0x0000000000042c42                _ZN11xercesc_2_79DOMStringC2ERKS0_
                0x0000000000042c60                _ZN11xercesc_2_713DOMStringData14allocateBufferEj
                0x0000000000042cec                _ZN11xercesc_2_715DOMStringHandlenwEm
                0x0000000000042e1a                _ZN11xercesc_2_715DOMStringHandle17cloneStringHandleEv
                0x0000000000042e68                _ZN11xercesc_2_715DOMStringHandle21createNewStringHandleEj
                0x0000000000042ebc                _ZN11xercesc_2_79DOMString7reserveEj
                0x0000000000042ed6                _ZN11xercesc_2_79DOMStringC2EPKtj
                0x0000000000042ed6                _ZN11xercesc_2_79DOMStringC1EPKtj
                0x0000000000042f54                _ZN11xercesc_2_79DOMStringC1EPKt
                0x0000000000042f54                _ZN11xercesc_2_79DOMStringC2EPKt
                0x0000000000042ff0                _ZN11xercesc_2_715getDomConverterEv
                0x0000000000043062                _ZNK11xercesc_2_79DOMString9transcodeEPNS_13MemoryManagerE
                0x000000000004316e                _ZNK11xercesc_2_79DOMString5printEv
                0x00000000000431cc                _ZNK11xercesc_2_79DOMString7printlnEv
                0x00000000000431ee                _ZNK11xercesc_2_79DOMString9transcodeEv
                0x00000000000432e6                _ZN11xercesc_2_79DOMString10appendDataEt
                0x00000000000433c4                _ZN11xercesc_2_79DOMStringpLEt
                0x00000000000433d5                _ZN11xercesc_2_715DOMStringHandledlEPv
                0x0000000000043508                _ZN11xercesc_2_79DOMStringC1EPKc
                0x0000000000043508                _ZN11xercesc_2_79DOMStringC2EPKc
                0x000000000004369c                _ZN11xercesc_2_79DOMString9transcodeEPKc
                0x00000000000436aa                _ZN11xercesc_2_79DOMStringaSEPNS_11DOM_NullPtrE
                0x000000000004373c                _ZN11xercesc_2_79DOMStringD2Ev
                0x000000000004373c                _ZN11xercesc_2_79DOMStringD1Ev
                0x00000000000437cc                _ZN11xercesc_2_79DOMString10deleteDataEjj
                0x00000000000439c0                _ZNK11xercesc_2_79DOMString5cloneEv
                0x0000000000043a1d                _ZN11xercesc_2_7plERKNS_9DOMStringEt
                0x0000000000043a74                _ZNK11xercesc_2_79DOMString13substringDataEjj
                0x0000000000043bd4                _ZN11xercesc_2_79DOMStringaSERKS0_
                0x0000000000043c86                _ZN11xercesc_2_79DOMString10insertDataEjRKS0_
                0x0000000000043f1a                _ZN11xercesc_2_79DOMString10appendDataERKS0_
                0x00000000000440b0                _ZN11xercesc_2_7plERKNS_9DOMStringES2_
                0x0000000000044108                _ZN11xercesc_2_79DOMStringpLERKS0_
                0x0000000000044116                _ZN11xercesc_2_7plEtRKNS_9DOMStringE
                0x0000000000044187                _ZN11xercesc_2_7plEPKtRKNS_9DOMStringE
                0x00000000000441de                _ZN11xercesc_2_79DOMString10appendDataEPKt
                0x000000000004422e                _ZN11xercesc_2_7plERKNS_9DOMStringEPKt
                0x0000000000044286                _ZN11xercesc_2_79DOMStringpLEPKt
 .text          0x0000000000044294       0x92 LINUX/depdom/DOM_Text.o
                0x0000000000044294                _ZN11xercesc_2_78DOM_Text21isIgnorableWhitespaceEv
                0x00000000000442aa                _ZN11xercesc_2_78DOM_TextaSEPKNS_11DOM_NullPtrE
                0x00000000000442b8                _ZN11xercesc_2_78DOM_TextaSERKS0_
                0x00000000000442c6                _ZN11xercesc_2_78DOM_TextD1Ev
                0x00000000000442c6                _ZN11xercesc_2_78DOM_TextD2Ev
                0x00000000000442d4                _ZN11xercesc_2_78DOM_TextC1EPNS_8TextImplE
                0x00000000000442d4                _ZN11xercesc_2_78DOM_TextC2EPNS_8TextImplE
                0x00000000000442e2                _ZN11xercesc_2_78DOM_Text9splitTextEj
                0x0000000000044304                _ZN11xercesc_2_78DOM_TextC1Ev
                0x0000000000044304                _ZN11xercesc_2_78DOM_TextC2Ev
                0x0000000000044318                _ZN11xercesc_2_78DOM_TextC1ERKS0_
                0x0000000000044318                _ZN11xercesc_2_78DOM_TextC2ERKS0_
 *fill*         0x0000000000044326        0x2 90909090
 .text          0x0000000000044328      0x1de LINUX/depdom/DOM_TreeWalker.o
                0x0000000000044328                _ZN11xercesc_2_714DOM_TreeWalkerC1Ev
                0x0000000000044328                _ZN11xercesc_2_714DOM_TreeWalkerC2Ev
                0x0000000000044330                _ZNK11xercesc_2_714DOM_TreeWalkerneERKS0_
                0x000000000004433a                _ZNK11xercesc_2_714DOM_TreeWalkereqERKS0_
                0x0000000000044344                _ZNK11xercesc_2_714DOM_TreeWalkerneEPKNS_11DOM_NullPtrE
                0x000000000004434c                _ZNK11xercesc_2_714DOM_TreeWalkereqEPKNS_11DOM_NullPtrE
                0x0000000000044354                _ZN11xercesc_2_714DOM_TreeWalker8nextNodeEv
                0x0000000000044366                _ZN11xercesc_2_714DOM_TreeWalker12previousNodeEv
                0x0000000000044378                _ZN11xercesc_2_714DOM_TreeWalker11nextSiblingEv
                0x000000000004438a                _ZN11xercesc_2_714DOM_TreeWalker15previousSiblingEv
                0x000000000004439c                _ZN11xercesc_2_714DOM_TreeWalker9lastChildEv
                0x00000000000443ae                _ZN11xercesc_2_714DOM_TreeWalker10firstChildEv
                0x00000000000443c0                _ZN11xercesc_2_714DOM_TreeWalker10parentNodeEv
                0x00000000000443d2                _ZN11xercesc_2_714DOM_TreeWalker14setCurrentNodeENS_8DOM_NodeE
                0x0000000000044424                _ZN11xercesc_2_714DOM_TreeWalker14getCurrentNodeEv
                0x0000000000044436                _ZN11xercesc_2_714DOM_TreeWalker9getFilterEv
                0x0000000000044448                _ZN11xercesc_2_714DOM_TreeWalker13getWhatToShowEv
                0x000000000004445a                _ZN11xercesc_2_714DOM_TreeWalker7getRootEv
                0x000000000004446c                _ZN11xercesc_2_714DOM_TreeWalkerD2Ev
                0x000000000004446c                _ZN11xercesc_2_714DOM_TreeWalkerD1Ev
                0x0000000000044482                _ZN11xercesc_2_714DOM_TreeWalkeraSEPKNS_11DOM_NullPtrE
                0x000000000004449a                _ZN11xercesc_2_714DOM_TreeWalkeraSERKS0_
                0x00000000000444da                _ZN11xercesc_2_714DOM_TreeWalkerC2ERKS0_
                0x00000000000444da                _ZN11xercesc_2_714DOM_TreeWalkerC1ERKS0_
                0x00000000000444f2                _ZN11xercesc_2_714DOM_TreeWalkerC2EPNS_14TreeWalkerImplE
                0x00000000000444f2                _ZN11xercesc_2_714DOM_TreeWalkerC1EPNS_14TreeWalkerImplE
 *fill*         0x0000000000044506        0x2 90909090
 .text          0x0000000000044508       0x9c LINUX/depdom/DOM_XMLDecl.o
                0x0000000000044508                _ZNK11xercesc_2_711DOM_XMLDecl10getVersionEv
                0x000000000004451e                _ZNK11xercesc_2_711DOM_XMLDecl11getEncodingEv
                0x0000000000044534                _ZNK11xercesc_2_711DOM_XMLDecl13getStandaloneEv
                0x000000000004454a                _ZN11xercesc_2_711DOM_XMLDeclaSEPKNS_11DOM_NullPtrE
                0x0000000000044558                _ZN11xercesc_2_711DOM_XMLDeclaSERKS0_
                0x0000000000044566                _ZN11xercesc_2_711DOM_XMLDeclD2Ev
                0x0000000000044566                _ZN11xercesc_2_711DOM_XMLDeclD1Ev
                0x0000000000044574                _ZN11xercesc_2_711DOM_XMLDeclC1EPNS_11XMLDeclImplE
                0x0000000000044574                _ZN11xercesc_2_711DOM_XMLDeclC2EPNS_11XMLDeclImplE
                0x0000000000044582                _ZN11xercesc_2_711DOM_XMLDeclC1Ev
                0x0000000000044582                _ZN11xercesc_2_711DOM_XMLDeclC2Ev
                0x0000000000044596                _ZN11xercesc_2_711DOM_XMLDeclC2ERKS0_
                0x0000000000044596                _ZN11xercesc_2_711DOM_XMLDeclC1ERKS0_
 .text          0x00000000000445a4      0x3a0 LINUX/depdom/DStringPool.o
                0x00000000000445a4                _ZN11xercesc_2_711DStringPoolC1EiPNS_13MemoryManagerE
                0x00000000000445a4                _ZN11xercesc_2_711DStringPoolC2EiPNS_13MemoryManagerE
                0x00000000000445f2                _ZN11xercesc_2_711DStringPoolD1Ev
                0x00000000000445f2                _ZN11xercesc_2_711DStringPoolD2Ev
                0x000000000004466c                _ZN11xercesc_2_711DStringPool15getStaticStringEPKcPPNS_9DOMStringEPFvvERNS_18XMLRegisterCleanupE
                0x000000000004472a                _ZN11xercesc_2_711DStringPool15getPooledStringERKNS_9DOMStringE
                0x0000000000044826                _ZN11xercesc_2_711DStringPool15getPooledStringEPKt
 *fill*         0x0000000000044944        0xc 90909090
 .text          0x0000000000044950      0x26d LINUX/depdom/ElementDefinitionImpl.o
                0x0000000000044950                _ZN11xercesc_2_721ElementDefinitionImpl11getNodeTypeEv
                0x0000000000044956                _ZN11xercesc_2_721ElementDefinitionImpl13getAttributesEv
                0x000000000004495c                _ZN11xercesc_2_721ElementDefinitionImpl11getNodeNameEv
                0x000000000004496e                _ZN11xercesc_2_721ElementDefinitionImplD2Ev
                0x000000000004496e                _ZN11xercesc_2_721ElementDefinitionImplD1Ev
                0x00000000000449c2                _ZN11xercesc_2_721ElementDefinitionImplD0Ev
                0x00000000000449d6                _ZN11xercesc_2_721ElementDefinitionImplC2ERKS0_b
                0x00000000000449d6                _ZN11xercesc_2_721ElementDefinitionImplC1ERKS0_b
                0x0000000000044a9a                _ZN11xercesc_2_721ElementDefinitionImpl9cloneNodeEb
                0x0000000000044b1c                _ZN11xercesc_2_721ElementDefinitionImplC1EPNS_12DocumentImplERKNS_9DOMStringE
                0x0000000000044b1c                _ZN11xercesc_2_721ElementDefinitionImplC2EPNS_12DocumentImplERKNS_9DOMStringE
 *fill*         0x0000000000044bbd        0x3 90909090
 .text          0x0000000000044bc0     0x1b33 LINUX/depdom/ElementImpl.o
                0x0000000000044bc0                _ZN11xercesc_2_711ElementImpl11getNodeTypeEv
                0x0000000000044bc6                _ZN11xercesc_2_711ElementImpl16getAttributeNodeERKNS_9DOMStringE
                0x0000000000044be4                _ZN11xercesc_2_711ElementImpl13getAttributesEv
                0x0000000000044bea                _ZN11xercesc_2_711ElementImpl13isElementImplEv
                0x0000000000044bf0                _ZN11xercesc_2_711ElementImpl18getAttributeNodeNSERKNS_9DOMStringES3_
                0x0000000000044c0e                _ZN11xercesc_2_711ElementImpl13hasAttributesEv
                0x0000000000044c30                _ZN11xercesc_2_711ElementImpl12hasAttributeERKNS_9DOMStringE
                0x0000000000044c48                _ZN11xercesc_2_711ElementImpl14hasAttributeNSERKNS_9DOMStringES3_
                0x0000000000044c60                _ZN11xercesc_2_711ElementImpl12NNM_cloneMapEPNS_8NodeImplE
                0x0000000000044c94                _ZN11xercesc_2_711ElementImpl17NNM_findNamePointERKNS_9DOMStringE
                0x0000000000044ce6                _ZN11xercesc_2_711ElementImpl13NNM_getLengthEv
                0x0000000000044d18                _ZN11xercesc_2_711ElementImpl16NNM_getNamedItemERKNS_9DOMStringE
                0x0000000000044d6a                _ZN11xercesc_2_711ElementImpl8NNM_itemEj
                0x0000000000044dba                _ZN11xercesc_2_711ElementImpl13NNM_removeAllEv
                0x0000000000044de4                _ZN11xercesc_2_711ElementImpl15NNM_setReadOnlyEbb
                0x0000000000044e3e                _ZN11xercesc_2_711ElementImpl17NNM_findNamePointERKNS_9DOMStringES3_
                0x0000000000044e9e                _ZN11xercesc_2_711ElementImpl18NNM_getNamedItemNSERKNS_9DOMStringES3_
                0x0000000000044efe                _ZN11xercesc_2_711ElementImpl20NNM_setOwnerDocumentEPNS_12DocumentImplE
                0x0000000000044f60                _ZN11xercesc_2_711ElementImpl17reinitElementImplEv
                0x0000000000044f8a                _ZN11xercesc_2_711ElementImpl22setupDefaultAttributesEv
                0x000000000004507e                _ZN11xercesc_2_711ElementImpl20getDefaultAttributesEv
                0x000000000004516a                _ZN11xercesc_2_711ElementImpl14getAttributeNSERKNS_9DOMStringES3_
                0x00000000000451b2                _ZN11xercesc_2_711ElementImpl21NNM_removeNamedItemNSERKNS_9DOMStringES3_
                0x000000000004529e                _ZN11xercesc_2_711ElementImpl19NNM_removeNamedItemERKNS_9DOMStringE
                0x000000000004536a                _ZN11xercesc_2_711ElementImpl18setAttributeNodeNSEPNS_8AttrImplE
                0x0000000000045608                _ZN11xercesc_2_711ElementImpl16setAttributeNodeEPNS_8AttrImplE
                0x0000000000045866                _ZN11xercesc_2_711ElementImpl12setAttributeERKNS_9DOMStringES3_
                0x0000000000045a16                _ZN11xercesc_2_711ElementImpl19removeAttributeNodeEPNS_8AttrImplE
                0x0000000000045c56                _ZN11xercesc_2_711ElementImpl18NNM_setNamedItemNSEPNS_8NodeImplE
                0x0000000000045d06                _ZN11xercesc_2_711ElementImpl16NNM_setNamedItemEPNS_8NodeImplE
                0x0000000000045dac                _ZN11xercesc_2_711ElementImpl22getElementsByTagNameNSERKNS_9DOMStringES3_
                0x0000000000045e46                _ZN11xercesc_2_711ElementImpl17removeAttributeNSERKNS_9DOMStringES3_
                0x0000000000045f82                _ZN11xercesc_2_711ElementImpl14setAttributeNSERKNS_9DOMStringES3_S3_
                0x0000000000046128                _ZN11xercesc_2_711ElementImpl15removeAttributeERKNS_9DOMStringE
                0x0000000000046252                _ZN11xercesc_2_711ElementImpl11setReadOnlyEbb
                0x0000000000046296                _ZN11xercesc_2_711ElementImpl10getTagNameEv
                0x00000000000462a8                _ZN11xercesc_2_711ElementImpl11getNodeNameEv
                0x00000000000462ba                _ZN11xercesc_2_711ElementImpl20getElementsByTagNameERKNS_9DOMStringE
                0x0000000000046344                _ZN11xercesc_2_711ElementImpl12getAttributeERKNS_9DOMStringE
                0x00000000000463c6                _ZN11xercesc_2_711ElementImpl16setOwnerDocumentEPNS_12DocumentImplE
                0x0000000000046404                _ZN11xercesc_2_711ElementImplD2Ev
                0x0000000000046404                _ZN11xercesc_2_711ElementImplD1Ev
                0x0000000000046490                _ZN11xercesc_2_711ElementImplD0Ev
                0x00000000000464a4                _ZN11xercesc_2_711ElementImplC2ERKS0_b
                0x00000000000464a4                _ZN11xercesc_2_711ElementImplC1ERKS0_b
                0x00000000000465b8                _ZN11xercesc_2_711ElementImpl9cloneNodeEb
                0x000000000004663a                _ZN11xercesc_2_711ElementImplC2EPNS_12DocumentImplERKNS_9DOMStringE
                0x000000000004663a                _ZN11xercesc_2_711ElementImplC1EPNS_12DocumentImplERKNS_9DOMStringE
 *fill*         0x00000000000466f3        0xd 90909090
 .text          0x0000000000046700      0xa57 LINUX/depdom/ElementNSImpl.o
                0x0000000000046700                _ZN11xercesc_2_713ElementNSImpl9setPrefixERKNS_9DOMStringE
                0x0000000000046bda                _ZN11xercesc_2_713ElementNSImpl12getLocalNameEv
                0x0000000000046bec                _ZN11xercesc_2_713ElementNSImpl15getNamespaceURIEv
                0x0000000000046bfe                _ZN11xercesc_2_713ElementNSImpl9getPrefixEv
                0x0000000000046c52                _ZN11xercesc_2_713ElementNSImplC2ERKS0_b
                0x0000000000046c52                _ZN11xercesc_2_713ElementNSImplC1ERKS0_b
                0x0000000000046d4c                _ZN11xercesc_2_713ElementNSImpl9cloneNodeEb
                0x0000000000046dce                _ZN11xercesc_2_713ElementNSImplC2EPNS_12DocumentImplERKNS_9DOMStringE
                0x0000000000046dce                _ZN11xercesc_2_713ElementNSImplC1EPNS_12DocumentImplERKNS_9DOMStringE
                0x0000000000046e76                _ZN11xercesc_2_713ElementNSImplC1EPNS_12DocumentImplERKNS_9DOMStringES5_
                0x0000000000046e76                _ZN11xercesc_2_713ElementNSImplC2EPNS_12DocumentImplERKNS_9DOMStringES5_
 *fill*         0x0000000000047157        0x9 90909090
 .text._ZN11xercesc_2_713ElementNSImplD2Ev
                0x0000000000047160       0x6d LINUX/depdom/ElementNSImpl.o
                0x0000000000047160                _ZN11xercesc_2_713ElementNSImplD1Ev
                0x0000000000047160                _ZN11xercesc_2_713ElementNSImplD2Ev
 *fill*         0x00000000000471cd        0x3 90909090
 .text._ZN11xercesc_2_713ElementNSImplD0Ev
                0x00000000000471d0       0x75 LINUX/depdom/ElementNSImpl.o
                0x00000000000471d0                _ZN11xercesc_2_713ElementNSImplD0Ev
 *fill*         0x0000000000047245        0xb 90909090
 .text          0x0000000000047250      0x559 LINUX/depdom/EntityImpl.o
                0x0000000000047250                _ZN11xercesc_2_710EntityImpl11getNodeTypeEv
                0x0000000000047256                _ZN11xercesc_2_710EntityImpl12setEntityRefEPNS_19EntityReferenceImplE
                0x00000000000472ba                _ZN11xercesc_2_710EntityImpl11setSystemIdERKNS_9DOMStringE
                0x00000000000472cc                _ZN11xercesc_2_710EntityImpl11setPublicIdERKNS_9DOMStringE
                0x00000000000472de                _ZN11xercesc_2_710EntityImpl15setNotationNameERKNS_9DOMStringE
                0x00000000000472f0                _ZN11xercesc_2_710EntityImpl11getSystemIdEv
                0x0000000000047302                _ZN11xercesc_2_710EntityImpl11getPublicIdEv
                0x0000000000047314                _ZN11xercesc_2_710EntityImpl15getNotationNameEv
                0x0000000000047326                _ZN11xercesc_2_710EntityImpl11getNodeNameEv
                0x0000000000047338                _ZN11xercesc_2_710EntityImplD1Ev
                0x0000000000047338                _ZN11xercesc_2_710EntityImplD2Ev
                0x00000000000473e4                _ZN11xercesc_2_710EntityImplD0Ev
                0x00000000000473f8                _ZN11xercesc_2_710EntityImplC2ERKS0_b
                0x00000000000473f8                _ZN11xercesc_2_710EntityImplC1ERKS0_b
                0x00000000000475f4                _ZN11xercesc_2_710EntityImpl9cloneNodeEb
                0x0000000000047676                _ZN11xercesc_2_710EntityImplC1EPNS_12DocumentImplERKNS_9DOMStringE
                0x0000000000047676                _ZN11xercesc_2_710EntityImplC2EPNS_12DocumentImplERKNS_9DOMStringE
 *fill*         0x00000000000477a9        0x7 90909090
 .text          0x00000000000477b0      0x435 LINUX/depdom/EntityReferenceImpl.o
                0x00000000000477b0                _ZN11xercesc_2_719EntityReferenceImpl11getNodeTypeEv
                0x00000000000477b6                _ZN11xercesc_2_719EntityReferenceImpl17isEntityReferenceEv
                0x00000000000477bc                _ZN11xercesc_2_719EntityReferenceImpl11setReadOnlyEbb
                0x00000000000478aa                _ZN11xercesc_2_719EntityReferenceImpl11getNodeNameEv
                0x00000000000478bc                _ZN11xercesc_2_719EntityReferenceImplD2Ev
                0x00000000000478bc                _ZN11xercesc_2_719EntityReferenceImplD1Ev
                0x000000000004792c                _ZN11xercesc_2_719EntityReferenceImplD0Ev
                0x0000000000047940                _ZN11xercesc_2_719EntityReferenceImplC1ERKS0_b
                0x0000000000047940                _ZN11xercesc_2_719EntityReferenceImplC2ERKS0_b
                0x0000000000047a24                _ZN11xercesc_2_719EntityReferenceImpl9cloneNodeEb
                0x0000000000047aa6                _ZN11xercesc_2_719EntityReferenceImplC1EPNS_12DocumentImplERKNS_9DOMStringE
                0x0000000000047aa6                _ZN11xercesc_2_719EntityReferenceImplC2EPNS_12DocumentImplERKNS_9DOMStringE
 *fill*         0x0000000000047be5        0xb 90909090
 .text          0x0000000000047bf0     0x1304 LINUX/depdom/NamedNodeMapImpl.o
                0x0000000000047bf0                _ZN11xercesc_2_716NamedNodeMapImplC1EPNS_8NodeImplE
                0x0000000000047bf0                _ZN11xercesc_2_716NamedNodeMapImplC2EPNS_8NodeImplE
                0x0000000000047c2a                _ZN11xercesc_2_716NamedNodeMapImpl6addRefEPS0_
                0x0000000000047c36                _ZN11xercesc_2_716NamedNodeMapImpl9removeRefEPS0_
                0x0000000000047c58                _ZN11xercesc_2_716NamedNodeMapImpl16setOwnerDocumentEPNS_12DocumentImplE
                0x0000000000047ca0                _ZN11xercesc_2_716NamedNodeMapImpl9getLengthEv
                0x0000000000047cbc                _ZN11xercesc_2_716NamedNodeMapImplD1Ev
                0x0000000000047cbc                _ZN11xercesc_2_716NamedNodeMapImplD2Ev
                0x0000000000047d16                _ZN11xercesc_2_716NamedNodeMapImplD0Ev
                0x0000000000047d2a                _ZN11xercesc_2_716NamedNodeMapImpl14getNamedItemNSERKNS_9DOMStringES3_
                0x0000000000047d4a                _ZN11xercesc_2_716NamedNodeMapImpl11setReadOnlyEbb
                0x0000000000047db2                _ZN11xercesc_2_716NamedNodeMapImpl4itemEj
                0x0000000000047df8                _ZN11xercesc_2_716NamedNodeMapImpl12getNamedItemERKNS_9DOMStringE
                0x0000000000047e18                _ZN11xercesc_2_716NamedNodeMapImpl12cloneContentEPS0_
                0x0000000000047f52                _ZN11xercesc_2_716NamedNodeMapImpl8cloneMapEPNS_8NodeImplE
                0x0000000000048092                _ZN11xercesc_2_716NamedNodeMapImpl17removeNamedItemNSERKNS_9DOMStringES3_
                0x000000000004823c                _ZN11xercesc_2_716NamedNodeMapImpl15removeNamedItemERKNS_9DOMStringE
                0x00000000000483e6                _ZN11xercesc_2_716NamedNodeMapImpl14setNamedItemNSEPNS_8NodeImplE
                0x00000000000487e2                _ZN11xercesc_2_716NamedNodeMapImpl12setNamedItemEPNS_8NodeImplE
                0x0000000000048b76                _ZN11xercesc_2_716NamedNodeMapImpl13findNamePointERKNS_9DOMStringES3_
                0x0000000000048da4                _ZN11xercesc_2_716NamedNodeMapImpl13findNamePointERKNS_9DOMStringE
                0x0000000000048e6c                _ZN11xercesc_2_716NamedNodeMapImpl9removeAllEv
 *fill*         0x0000000000048ef4        0xc 90909090
 .text          0x0000000000048f00      0x58c LINUX/depdom/NodeIDMap.o
                0x0000000000048f00                _ZN11xercesc_2_79NodeIDMapD2Ev
                0x0000000000048f00                _ZN11xercesc_2_79NodeIDMapD1Ev
                0x0000000000048f28                _ZN11xercesc_2_79NodeIDMapC2EiPNS_13MemoryManagerE
                0x0000000000048f28                _ZN11xercesc_2_79NodeIDMapC1EiPNS_13MemoryManagerE
                0x00000000000490a8                _ZN11xercesc_2_79NodeIDMapD0Ev
                0x00000000000490bc                _ZN11xercesc_2_79NodeIDMap4findERKNS_9DOMStringE
                0x00000000000491ac                _ZN11xercesc_2_79NodeIDMap6removeEPNS_8AttrImplE
                0x000000000004925c                _ZN11xercesc_2_79NodeIDMap9growTableEv
                0x00000000000493ce                _ZN11xercesc_2_79NodeIDMap3addEPNS_8AttrImplE
 .text._ZNK11xercesc_2_716RuntimeException7getTypeEv
                0x000000000004948c        0x8 LINUX/depdom/NodeIDMap.o
                0x000000000004948c                _ZNK11xercesc_2_716RuntimeException7getTypeEv
 .text._ZN11xercesc_2_716RuntimeExceptionD2Ev
                0x0000000000049494       0x1c LINUX/depdom/NodeIDMap.o
                0x0000000000049494                _ZN11xercesc_2_716RuntimeExceptionD2Ev
                0x0000000000049494                _ZN11xercesc_2_716RuntimeExceptionD1Ev
 .text._ZNK11xercesc_2_716RuntimeException9duplicateEv
                0x00000000000494b0       0x6e LINUX/depdom/NodeIDMap.o
                0x00000000000494b0                _ZNK11xercesc_2_716RuntimeException9duplicateEv
 .text._ZN11xercesc_2_716RuntimeExceptionD0Ev
                0x000000000004951e       0x21 LINUX/depdom/NodeIDMap.o
                0x000000000004951e                _ZN11xercesc_2_716RuntimeExceptionD0Ev
 *fill*         0x000000000004953f        0x1 90909090
 .text          0x0000000000049540      0xda3 LINUX/depdom/NodeImpl.o
                0x0000000000049540                _ZN11xercesc_2_78NodeImpl10isAttrImplEv
                0x0000000000049546                _ZN11xercesc_2_78NodeImpl18isCDATASectionImplEv
                0x000000000004954c                _ZN11xercesc_2_78NodeImpl22isDocumentFragmentImplEv
                0x0000000000049552                _ZN11xercesc_2_78NodeImpl14isDocumentImplEv
                0x0000000000049558                _ZN11xercesc_2_78NodeImpl18isDocumentTypeImplEv
                0x000000000004955e                _ZN11xercesc_2_78NodeImpl13isElementImplEv
                0x0000000000049564                _ZN11xercesc_2_78NodeImpl17isEntityReferenceEv
                0x000000000004956a                _ZN11xercesc_2_78NodeImpl10isTextImplEv
                0x0000000000049570                _ZN11xercesc_2_78NodeImpl7changedEv
                0x000000000004958c                _ZN11xercesc_2_78NodeImpl7changesEv
                0x00000000000495a8                _ZN11xercesc_2_78NodeImpl11appendChildEPS0_
                0x00000000000495c0                _ZN11xercesc_2_78NodeImpl13getAttributesEv
                0x00000000000495c6                _ZN11xercesc_2_78NodeImpl13getChildNodesEv
                0x00000000000495ca                _ZN11xercesc_2_78NodeImpl13getFirstChildEv
                0x00000000000495d0                _ZN11xercesc_2_78NodeImpl12getLastChildEv
                0x00000000000495d6                _ZN11xercesc_2_78NodeImpl9getLengthEv
                0x00000000000495dc                _ZN11xercesc_2_78NodeImpl14getNextSiblingEv
                0x00000000000495e2                _ZN11xercesc_2_78NodeImpl16getOwnerDocumentEv
                0x0000000000049604                _ZN11xercesc_2_78NodeImpl11getDocumentEv
                0x0000000000049626                _ZN11xercesc_2_78NodeImpl16setOwnerDocumentEPNS_12DocumentImplE
                0x0000000000049632                _ZN11xercesc_2_78NodeImpl13getParentNodeEv
                0x0000000000049638                _ZN11xercesc_2_78NodeImpl18getPreviousSiblingEv
                0x000000000004963e                _ZN11xercesc_2_78NodeImpl11getUserDataEv
                0x0000000000049668                _ZN11xercesc_2_78NodeImpl13hasChildNodesEv
                0x000000000004966e                _ZN11xercesc_2_78NodeImpl4itemEj
                0x0000000000049674                _ZN11xercesc_2_78NodeImpl12setNodeValueERKNS_9DOMStringE
                0x0000000000049676                _ZN11xercesc_2_78NodeImpl11setReadOnlyEbb
                0x0000000000049690                _ZN11xercesc_2_78NodeImpl11setUserDataEPv
                0x00000000000496e2                _ZN11xercesc_2_78NodeImpl9normalizeEv
                0x00000000000496e4                _ZN11xercesc_2_78NodeImpl13hasAttributesEv
                0x0000000000049700                _ZN11xercesc_2_78NodeImpl14reinitNodeImplEv
                0x00000000000497a0                _ZN11xercesc_2_78NodeImpl15getXmlURIStringEv
                0x00000000000497d6                _ZN11xercesc_2_78NodeImpl12getXmlStringEv
                0x000000000004980c                _ZN11xercesc_2_78NodeImpl17getXmlnsURIStringEv
                0x0000000000049842                _ZN11xercesc_2_78NodeImpl14getXmlnsStringEv
                0x0000000000049878                _ZN11xercesc_2_78NodeImpl12getLocalNameEv
                0x000000000004988c                _ZN11xercesc_2_78NodeImpl9getPrefixEv
                0x00000000000498a0                _ZN11xercesc_2_78NodeImpl15getNamespaceURIEv
                0x00000000000498b4                _ZN11xercesc_2_78NodeImpl12getNodeValueEv
                0x00000000000498c8                _ZN11xercesc_2_78NodeImpl9setPrefixERKNS_9DOMStringE
                0x0000000000049966                _ZN11xercesc_2_78NodeImpl12replaceChildEPS0_S1_
                0x0000000000049a04                _ZN11xercesc_2_78NodeImpl11removeChildEPS0_
                0x0000000000049aa2                _ZN11xercesc_2_78NodeImpl12insertBeforeEPS0_S1_
                0x0000000000049b40                _ZN11xercesc_2_78NodeImpl9mapPrefixERKNS_9DOMStringES3_s
                0x0000000000049ed4                _ZN11xercesc_2_78NodeImpl11isSupportedERKNS_9DOMStringES3_
                0x0000000000049f0a                _ZN11xercesc_2_78NodeImpl8toStringEv
                0x000000000004a0a0                _ZN11xercesc_2_78NodeImpl10referencedEv
                0x000000000004a0ba                _ZN11xercesc_2_78NodeImpl8deleteIfEPS0_
                0x000000000004a15e                _ZN11xercesc_2_78NodeImpl12unreferencedEv
                0x000000000004a19a                _ZN11xercesc_2_78NodeImplD1Ev
                0x000000000004a19a                _ZN11xercesc_2_78NodeImplD2Ev
                0x000000000004a1fe                _ZN11xercesc_2_78NodeImplD0Ev
                0x000000000004a212                _ZN11xercesc_2_78NodeImplC2ERKS0_
                0x000000000004a212                _ZN11xercesc_2_78NodeImplC1ERKS0_
                0x000000000004a288                _ZN11xercesc_2_78NodeImplC2EPNS_12DocumentImplE
                0x000000000004a288                _ZN11xercesc_2_78NodeImplC1EPNS_12DocumentImplE
 *fill*         0x000000000004a2e3        0xd 90909090
 .text          0x000000000004a2f0     0x12d2 LINUX/depdom/NodeIteratorImpl.o
                0x000000000004a2f0                _ZN11xercesc_2_716NodeIteratorImpl6detachEv
                0x000000000004a2f6                _ZN11xercesc_2_716NodeIteratorImpl13getWhatToShowEv
                0x000000000004a2fc                _ZN11xercesc_2_716NodeIteratorImpl9getFilterEv
                0x000000000004a302                _ZN11xercesc_2_716NodeIteratorImpl25getExpandEntityReferencesEv
                0x000000000004a308                _ZN11xercesc_2_716NodeIteratorImpl12unreferencedEv
                0x000000000004a3b4                _ZN11xercesc_2_716NodeIteratorImpl7getRootEv
                0x000000000004a3c6                _ZN11xercesc_2_716NodeIteratorImplaSERKS0_
                0x000000000004a436                _ZN11xercesc_2_716NodeIteratorImpl12previousNodeENS_8DOM_NodeE
                0x000000000004a5ea                _ZN11xercesc_2_716NodeIteratorImpl17matchNodeOrParentENS_8DOM_NodeE
                0x000000000004a6da                _ZN11xercesc_2_716NodeIteratorImpl8nextNodeENS_8DOM_NodeEb
                0x000000000004aa1e                _ZN11xercesc_2_716NodeIteratorImpl10removeNodeENS_8DOM_NodeE
                0x000000000004acee                _ZN11xercesc_2_716NodeIteratorImpl10acceptNodeENS_8DOM_NodeE
                0x000000000004ae18                _ZN11xercesc_2_716NodeIteratorImpl12previousNodeEv
                0x000000000004b0c6                _ZN11xercesc_2_716NodeIteratorImpl8nextNodeEv
                0x000000000004b362                _ZN11xercesc_2_716NodeIteratorImplC2ERKS0_
                0x000000000004b362                _ZN11xercesc_2_716NodeIteratorImplC1ERKS0_
                0x000000000004b404                _ZN11xercesc_2_716NodeIteratorImplD2Ev
                0x000000000004b404                _ZN11xercesc_2_716NodeIteratorImplD1Ev
                0x000000000004b476                _ZN11xercesc_2_716NodeIteratorImplD0Ev
                0x000000000004b48a                _ZN11xercesc_2_716NodeIteratorImplC1Ev
                0x000000000004b48a                _ZN11xercesc_2_716NodeIteratorImplC2Ev
                0x000000000004b50a                _ZN11xercesc_2_716NodeIteratorImplC2ENS_8DOM_NodeEmPNS_14DOM_NodeFilterEb
                0x000000000004b50a                _ZN11xercesc_2_716NodeIteratorImplC1ENS_8DOM_NodeEmPNS_14DOM_NodeFilterEb
 .text._ZNK11xercesc_2_715BaseRefVectorOfINS_16NodeIteratorImplEE4sizeEv
                0x000000000004b5c2        0x4 LINUX/depdom/NodeIteratorImpl.o
                0x000000000004b5c2                _ZNK11xercesc_2_715BaseRefVectorOfINS_16NodeIteratorImplEE4sizeEv
 *fill*         0x000000000004b5c6        0xa 90909090
 .text._ZN11xercesc_2_715BaseRefVectorOfINS_16NodeIteratorImplEE9elementAtEj
                0x000000000004b5d0       0xbf LINUX/depdom/NodeIteratorImpl.o
                0x000000000004b5d0                _ZN11xercesc_2_715BaseRefVectorOfINS_16NodeIteratorImplEE9elementAtEj
 *fill*         0x000000000004b68f        0x1 90909090
 .text          0x000000000004b690       0x49 LINUX/depdom/NodeListImpl.o
                0x000000000004b690                _ZN11xercesc_2_712NodeListImplD1Ev
                0x000000000004b690                _ZN11xercesc_2_712NodeListImplD2Ev
                0x000000000004b6ac                _ZN11xercesc_2_712NodeListImplD0Ev
                0x000000000004b6c0                _ZN11xercesc_2_712NodeListImplC2Ev
                0x000000000004b6c0                _ZN11xercesc_2_712NodeListImplC1Ev
 *fill*         0x000000000004b6d9        0x3 90909090
 .text          0x000000000004b6dc      0x1e0 LINUX/depdom/NodeVector.o
                0x000000000004b6dc                _ZN11xercesc_2_710NodeVector4initEj
                0x000000000004b71c                _ZN11xercesc_2_710NodeVectorC1EjPNS_13MemoryManagerE
                0x000000000004b71c                _ZN11xercesc_2_710NodeVectorC2EjPNS_13MemoryManagerE
                0x000000000004b72e                _ZN11xercesc_2_710NodeVectorC1EPNS_13MemoryManagerE
                0x000000000004b72e                _ZN11xercesc_2_710NodeVectorC2EPNS_13MemoryManagerE
                0x000000000004b746                _ZN11xercesc_2_710NodeVectorD1Ev
                0x000000000004b746                _ZN11xercesc_2_710NodeVectorD2Ev
                0x000000000004b760                _ZN11xercesc_2_710NodeVector10checkSpaceEv
                0x000000000004b7d8                _ZN11xercesc_2_710NodeVector10addElementEPNS_8NodeImplE
                0x000000000004b80e                _ZN11xercesc_2_710NodeVector9elementAtEj
                0x000000000004b824                _ZN11xercesc_2_710NodeVector11lastElementEv
                0x000000000004b83c                _ZN11xercesc_2_710NodeVector15insertElementAtEPNS_8NodeImplEj
                0x000000000004b87c                _ZN11xercesc_2_710NodeVector15removeElementAtEj
                0x000000000004b8a6                _ZN11xercesc_2_710NodeVector5resetEv
                0x000000000004b8ae                _ZN11xercesc_2_710NodeVector12setElementAtEPNS_8NodeImplEj
                0x000000000004b8b8                _ZN11xercesc_2_710NodeVector4sizeEv
 *fill*         0x000000000004b8bc        0x4 90909090
 .text          0x000000000004b8c0      0x4e0 LINUX/depdom/NotationImpl.o
                0x000000000004b8c0                _ZN11xercesc_2_712NotationImpl11getNodeTypeEv
                0x000000000004b8c6                _ZN11xercesc_2_712NotationImpl13getParentNodeEv
                0x000000000004b8cc                _ZN11xercesc_2_712NotationImpl11getSystemIdEv
                0x000000000004b8de                _ZN11xercesc_2_712NotationImpl11getPublicIdEv
                0x000000000004b8f0                _ZN11xercesc_2_712NotationImpl11setSystemIdERKNS_9DOMStringE
                0x000000000004b9de                _ZN11xercesc_2_712NotationImpl11setPublicIdERKNS_9DOMStringE
                0x000000000004bacc                _ZN11xercesc_2_712NotationImpl11getNodeNameEv
                0x000000000004bade                _ZN11xercesc_2_712NotationImplD2Ev
                0x000000000004bade                _ZN11xercesc_2_712NotationImplD1Ev
                0x000000000004bb66                _ZN11xercesc_2_712NotationImplD0Ev
                0x000000000004bb7a                _ZN11xercesc_2_712NotationImplC2ERKS0_b
                0x000000000004bb7a                _ZN11xercesc_2_712NotationImplC1ERKS0_b
                0x000000000004bc5e                _ZN11xercesc_2_712NotationImpl9cloneNodeEb
                0x000000000004bcbe                _ZN11xercesc_2_712NotationImplC1EPNS_12DocumentImplERKNS_9DOMStringE
                0x000000000004bcbe                _ZN11xercesc_2_712NotationImplC2EPNS_12DocumentImplERKNS_9DOMStringE
 .text          0x000000000004bda0      0xd4c LINUX/depdom/ParentNode.o
                0x000000000004bda0                _ZN11xercesc_2_710ParentNode13cloneChildrenERKNS_8NodeImplE
                0x000000000004be08                _ZN11xercesc_2_710ParentNode16getOwnerDocumentEv
                0x000000000004be0e                _ZN11xercesc_2_710ParentNode11getDocumentEv
                0x000000000004be14                _ZN11xercesc_2_710ParentNode16setOwnerDocumentEPNS_12DocumentImplE
                0x000000000004be54                _ZN11xercesc_2_710ParentNode13getChildNodesEv
                0x000000000004be58                _ZN11xercesc_2_710ParentNode13getFirstChildEv
                0x000000000004be5e                _ZN11xercesc_2_710ParentNode9lastChildEv
                0x000000000004be72                _ZN11xercesc_2_710ParentNode12getLastChildEv
                0x000000000004be80                _ZN11xercesc_2_710ParentNode9lastChildEPNS_9ChildNodeE
                0x000000000004be90                _ZN11xercesc_2_710ParentNode9getLengthEv
                0x000000000004bed0                _ZN11xercesc_2_710ParentNode13hasChildNodesEv
                0x000000000004beda                _ZN11xercesc_2_710ParentNode4itemEj
                0x000000000004bf7e                _ZN11xercesc_2_710ParentNode12replaceChildEPNS_8NodeImplES2_
                0x000000000004bfce                _ZN11xercesc_2_710ParentNode9normalizeEv
                0x000000000004c0aa                _ZN11xercesc_2_710ParentNode11setReadOnlyEbb
                0x000000000004c0fe                _ZN11xercesc_2_710ParentNode11removeChildEPNS_8NodeImplE
                0x000000000004c3ea                _ZN11xercesc_2_710ParentNode12insertBeforeEPNS_8NodeImplES2_
                0x000000000004ca38                _ZN11xercesc_2_710ParentNodeC2ERKS0_
                0x000000000004ca38                _ZN11xercesc_2_710ParentNodeC1ERKS0_
                0x000000000004ca94                _ZN11xercesc_2_710ParentNodeC2EPNS_12DocumentImplE
                0x000000000004ca94                _ZN11xercesc_2_710ParentNodeC1EPNS_12DocumentImplE
 .text._ZN11xercesc_2_710ParentNodeD2Ev
                0x000000000004caec       0x1c LINUX/depdom/ParentNode.o
                0x000000000004caec                _ZN11xercesc_2_710ParentNodeD2Ev
                0x000000000004caec                _ZN11xercesc_2_710ParentNodeD1Ev
 .text._ZN11xercesc_2_710ParentNodeD0Ev
                0x000000000004cb08       0x21 LINUX/depdom/ParentNode.o
                0x000000000004cb08                _ZN11xercesc_2_710ParentNodeD0Ev
 *fill*         0x000000000004cb29        0x7 90909090
 .text          0x000000000004cb30      0x503 LINUX/depdom/ProcessingInstructionImpl.o
                0x000000000004cb30                _ZN11xercesc_2_725ProcessingInstructionImpl11getNodeTypeEv
                0x000000000004cb36                _ZN11xercesc_2_725ProcessingInstructionImpl9getTargetEv
                0x000000000004cb48                _ZN11xercesc_2_725ProcessingInstructionImpl7getDataEv
                0x000000000004cb5a                _ZN11xercesc_2_725ProcessingInstructionImpl12getNodeValueEv
                0x000000000004cb6c                _ZN11xercesc_2_725ProcessingInstructionImpl7setDataERKNS_9DOMStringE
                0x000000000004cc5a                _ZN11xercesc_2_725ProcessingInstructionImpl12setNodeValueERKNS_9DOMStringE
                0x000000000004cd48                _ZN11xercesc_2_725ProcessingInstructionImpl11getNodeNameEv
                0x000000000004cd5a                _ZN11xercesc_2_725ProcessingInstructionImplD2Ev
                0x000000000004cd5a                _ZN11xercesc_2_725ProcessingInstructionImplD1Ev
                0x000000000004cdc8                _ZN11xercesc_2_725ProcessingInstructionImplD0Ev
                0x000000000004cddc                _ZN11xercesc_2_725ProcessingInstructionImplC1ERKS0_b
                0x000000000004cddc                _ZN11xercesc_2_725ProcessingInstructionImplC2ERKS0_b
                0x000000000004ced2                _ZN11xercesc_2_725ProcessingInstructionImpl9cloneNodeEb
                0x000000000004cf32                _ZN11xercesc_2_725ProcessingInstructionImplC1EPNS_12DocumentImplERKNS_9DOMStringES5_
                0x000000000004cf32                _ZN11xercesc_2_725ProcessingInstructionImplC2EPNS_12DocumentImplERKNS_9DOMStringES5_
 *fill*         0x000000000004d033        0xd 90909090
 .text          0x000000000004d040     0x6fc0 LINUX/depdom/RangeImpl.o
                0x000000000004d040                _ZNK11xercesc_2_79RangeImpl14getStartOffsetEv
                0x000000000004d044                _ZNK11xercesc_2_79RangeImpl12getEndOffsetEv
                0x000000000004d048                _ZN11xercesc_2_79RangeImpl15updateSplitInfoEPNS_8TextImplES2_j
                0x000000000004d126                _ZN11xercesc_2_79RangeImpl25updateRangeForDeletedTextERNS_8DOM_NodeEji
                0x000000000004d1fa                _ZN11xercesc_2_79RangeImpl19receiveReplacedTextEPNS_8NodeImplE
                0x000000000004d29e                _ZNK11xercesc_2_79RangeImpl20isLegalContainedNodeERKNS_8DOM_NodeE
                0x000000000004d2e0                _ZN11xercesc_2_79RangeImpl11removeChildERNS_8DOM_NodeES2_
                0x000000000004d368                _ZNK11xercesc_2_79RangeImpl15getEndContainerEv
                0x000000000004d37a                _ZNK11xercesc_2_79RangeImpl17getStartContainerEv
                0x000000000004d38c                _ZN11xercesc_2_79RangeImpl8collapseEb
                0x000000000004d476                _ZN11xercesc_2_79RangeImpl6detachEv
                0x000000000004d560                _ZN11xercesc_2_79RangeImpl12setEndOffsetEj
                0x000000000004d61a                _ZN11xercesc_2_79RangeImpl15setEndContainerERKNS_8DOM_NodeE
                0x000000000004d6da                _ZN11xercesc_2_79RangeImpl14setStartOffsetEj
                0x000000000004d794                _ZN11xercesc_2_79RangeImpl17setStartContainerERKNS_8DOM_NodeE
                0x000000000004d854                _ZNK11xercesc_2_79RangeImpl12getCollapsedEv
                0x000000000004d92e                _ZN11xercesc_2_79RangeImpl15getSelectedNodeENS_8DOM_NodeEi
                0x000000000004da30                _ZN11xercesc_2_79RangeImpl19recurseTreeAndCheckERNS_8DOM_NodeES2_
                0x000000000004dbcc                _ZN11xercesc_2_79RangeImpl13checkReadOnlyERNS_8DOM_NodeES2_jj
                0x000000000004de60                _ZNK11xercesc_2_79RangeImpl10checkIndexERKNS_8DOM_NodeEj
                0x000000000004e080                _ZN11xercesc_2_79RangeImpl16traverseTextNodeENS_8DOM_NodeEbi
                0x000000000004e340                _ZN11xercesc_2_79RangeImpl25traversePartiallySelectedENS_8DOM_NodeEi
                0x000000000004e380                _ZN11xercesc_2_79RangeImpl21traverseFullySelectedENS_8DOM_NodeEi
                0x000000000004e4ee                _ZN11xercesc_2_79RangeImpl12traverseNodeENS_8DOM_NodeEbbi
                0x000000000004e620                _ZNK11xercesc_2_79RangeImpl8nextNodeERKNS_8DOM_NodeEb
                0x000000000004e884                _ZNK11xercesc_2_79RangeImpl21hasLegalRootContainerERKNS_8DOM_NodeE
                0x000000000004e97c                _ZN11xercesc_2_79RangeImpl12isAncestorOfERKNS_8DOM_NodeES3_
                0x000000000004ea20                _ZNK11xercesc_2_79RangeImpl19isValidAncestorTypeERKNS_8DOM_NodeE
                0x000000000004eac8                _ZN11xercesc_2_79RangeImpl20traverseLeftBoundaryENS_8DOM_NodeEi
                0x000000000004ef84                _ZNK11xercesc_2_79RangeImpl7indexOfERKNS_8DOM_NodeES3_
                0x000000000004f060                _ZN11xercesc_2_79RangeImpl26updateRangeForInsertedNodeEPNS_8NodeImplE
                0x000000000004f158                _ZN11xercesc_2_79RangeImpl25updateRangeForDeletedNodeEPNS_8NodeImplE
                0x000000000004f3b6                _ZN11xercesc_2_79RangeImpl21traverseRightBoundaryENS_8DOM_NodeEi
                0x000000000004f87e                _ZN11xercesc_2_79RangeImpl21traverseSameContainerEi
                0x000000000004fc5a                _ZNK11xercesc_2_79RangeImpl12validateNodeERKNS_8DOM_NodeE
                0x000000000004fda6                _ZN11xercesc_2_79RangeImpl11getDocumentEv
                0x000000000004fdb8                _ZNK11xercesc_2_79RangeImpl8toStringEv
                0x000000000005049a                _ZN11xercesc_2_79RangeImpl10insertNodeERNS_8DOM_NodeE
                0x0000000000050b44                _ZN11xercesc_2_79RangeImpl18selectNodeContentsERKNS_8DOM_NodeE
                0x0000000000050c76                _ZN11xercesc_2_79RangeImpl10selectNodeERKNS_8DOM_NodeE
                0x0000000000050e74                _ZN11xercesc_2_79RangeImplD1Ev
                0x0000000000050e74                _ZN11xercesc_2_79RangeImplD2Ev
                0x0000000000050f06                _ZN11xercesc_2_79RangeImplD0Ev
                0x0000000000050f1a                _ZN11xercesc_2_79RangeImplC1ENS_12DOM_DocumentE
                0x0000000000050f1a                _ZN11xercesc_2_79RangeImplC2ENS_12DOM_DocumentE
                0x0000000000050ffc                _ZN11xercesc_2_79RangeImplC1ERKS0_
                0x0000000000050ffc                _ZN11xercesc_2_79RangeImplC2ERKS0_
                0x0000000000051120                _ZNK11xercesc_2_79RangeImpl16commonAncestorOfERKNS_8DOM_NodeES3_
                0x0000000000051568                _ZNK11xercesc_2_79RangeImpl26getCommonAncestorContainerEv
                0x000000000005157e                _ZNK11xercesc_2_79RangeImpl21compareBoundaryPointsENS_9DOM_Range10CompareHowEPS0_
                0x0000000000051c58                _ZN11xercesc_2_79RangeImpl11setEndAfterERKNS_8DOM_NodeE
                0x0000000000051f8a                _ZN11xercesc_2_79RangeImpl12setEndBeforeERKNS_8DOM_NodeE
                0x00000000000522d0                _ZN11xercesc_2_79RangeImpl28traverseCommonStartContainerENS_8DOM_NodeEi
                0x00000000000525fa                _ZN11xercesc_2_79RangeImpl13setStartAfterERKNS_8DOM_NodeE
                0x000000000005292c                _ZN11xercesc_2_79RangeImpl23traverseCommonAncestorsENS_8DOM_NodeES1_i
                0x0000000000052cf6                _ZN11xercesc_2_79RangeImpl26traverseCommonEndContainerENS_8DOM_NodeEi
                0x0000000000052fa4                _ZN11xercesc_2_79RangeImpl14setStartBeforeERKNS_8DOM_NodeE
                0x00000000000532e8                _ZN11xercesc_2_79RangeImpl6setEndERKNS_8DOM_NodeEj
                0x000000000005343c                _ZN11xercesc_2_79RangeImpl8setStartERKNS_8DOM_NodeEj
                0x0000000000053590                _ZNK11xercesc_2_79RangeImpl10cloneRangeEv
                0x000000000005366a                _ZN11xercesc_2_79RangeImpl16traverseContentsENS0_13TraversalTypeE
                0x0000000000053a28                _ZNK11xercesc_2_79RangeImpl13cloneContentsEv
                0x0000000000053a3c                _ZN11xercesc_2_79RangeImpl15extractContentsEv
                0x0000000000053a8a                _ZN11xercesc_2_79RangeImpl16surroundContentsERNS_8DOM_NodeE
                0x0000000000053f60                _ZN11xercesc_2_79RangeImpl14deleteContentsEv
                0x0000000000053f84                _ZN11xercesc_2_79RangeImpl12unreferencedEv
 .text._ZNK11xercesc_2_715BaseRefVectorOfINS_8NodeImplEE4sizeEv
                0x0000000000054000        0x4 LINUX/depdom/RangeImpl.o
                0x0000000000054000                _ZNK11xercesc_2_715BaseRefVectorOfINS_8NodeImplEE4sizeEv
 .text._ZN11xercesc_2_715BaseRefVectorOfINS_8NodeImplEEC2EjbPNS_13MemoryManagerE
                0x0000000000054004       0x75 LINUX/depdom/RangeImpl.o
                0x0000000000054004                _ZN11xercesc_2_715BaseRefVectorOfINS_8NodeImplEEC1EjbPNS_13MemoryManagerE
                0x0000000000054004                _ZN11xercesc_2_715BaseRefVectorOfINS_8NodeImplEEC2EjbPNS_13MemoryManagerE
 *fill*         0x0000000000054079        0x1 90909090
 .text._ZN11xercesc_2_711RefVectorOfINS_8NodeImplEEC2EjbPNS_13MemoryManagerE
                0x000000000005407a       0x1c LINUX/depdom/RangeImpl.o
                0x000000000005407a                _ZN11xercesc_2_711RefVectorOfINS_8NodeImplEEC2EjbPNS_13MemoryManagerE
                0x000000000005407a                _ZN11xercesc_2_711RefVectorOfINS_8NodeImplEEC1EjbPNS_13MemoryManagerE
 .text._ZN11xercesc_2_715BaseRefVectorOfINS_8NodeImplEED2Ev
                0x0000000000054096        0xf LINUX/depdom/RangeImpl.o
                0x0000000000054096                _ZN11xercesc_2_715BaseRefVectorOfINS_8NodeImplEED1Ev
                0x0000000000054096                _ZN11xercesc_2_715BaseRefVectorOfINS_8NodeImplEED2Ev
 *fill*         0x00000000000540a5        0x1 90909090
 .text._ZN11xercesc_2_715BaseRefVectorOfINS_8NodeImplEE19ensureExtraCapacityEj
                0x00000000000540a6       0x8e LINUX/depdom/RangeImpl.o
                0x00000000000540a6                _ZN11xercesc_2_715BaseRefVectorOfINS_8NodeImplEE19ensureExtraCapacityEj
 .text._ZN11xercesc_2_715BaseRefVectorOfINS_8NodeImplEE10addElementEPS1_
                0x0000000000054134       0x3c LINUX/depdom/RangeImpl.o
                0x0000000000054134                _ZN11xercesc_2_715BaseRefVectorOfINS_8NodeImplEE10addElementEPS1_
 .text._ZN11xercesc_2_715BaseRefVectorOfINS_8NodeImplEE17removeAllElementsEv
                0x0000000000054170       0x53 LINUX/depdom/RangeImpl.o
                0x0000000000054170                _ZN11xercesc_2_715BaseRefVectorOfINS_8NodeImplEE17removeAllElementsEv
 *fill*         0x00000000000541c3        0x1 90909090
 .text._ZN11xercesc_2_715BaseRefVectorOfINS_8NodeImplEE17removeLastElementEv
                0x00000000000541c4       0x31 LINUX/depdom/RangeImpl.o
                0x00000000000541c4                _ZN11xercesc_2_715BaseRefVectorOfINS_8NodeImplEE17removeLastElementEv
 *fill*         0x00000000000541f5        0x1 90909090
 .text._ZN11xercesc_2_715BaseRefVectorOfINS_8NodeImplEE7cleanupEv
                0x00000000000541f6       0x4c LINUX/depdom/RangeImpl.o
                0x00000000000541f6                _ZN11xercesc_2_715BaseRefVectorOfINS_8NodeImplEE7cleanupEv
 .text._ZN11xercesc_2_711RefVectorOfINS_8NodeImplEED2Ev
                0x0000000000054242       0x77 LINUX/depdom/RangeImpl.o
                0x0000000000054242                _ZN11xercesc_2_711RefVectorOfINS_8NodeImplEED2Ev
                0x0000000000054242                _ZN11xercesc_2_711RefVectorOfINS_8NodeImplEED1Ev
 *fill*         0x00000000000542b9        0x7 90909090
 .text._ZN11xercesc_2_715BaseRefVectorOfINS_8NodeImplEE15removeElementAtEj
                0x00000000000542c0      0x10b LINUX/depdom/RangeImpl.o
                0x00000000000542c0                _ZN11xercesc_2_715BaseRefVectorOfINS_8NodeImplEE15removeElementAtEj
 *fill*         0x00000000000543cb        0x1 90909090
 .text._ZN11xercesc_2_711RefVectorOfINS_8NodeImplEED0Ev
                0x00000000000543cc       0x13 LINUX/depdom/RangeImpl.o
                0x00000000000543cc                _ZN11xercesc_2_711RefVectorOfINS_8NodeImplEED0Ev
 *fill*         0x00000000000543df        0x1 90909090
 .text._ZN11xercesc_2_715BaseRefVectorOfINS_8NodeImplEED0Ev
                0x00000000000543e0       0x13 LINUX/depdom/RangeImpl.o
                0x00000000000543e0                _ZN11xercesc_2_715BaseRefVectorOfINS_8NodeImplEED0Ev
 *fill*         0x00000000000543f3        0xd 90909090
 .text._ZN11xercesc_2_715BaseRefVectorOfINS_8NodeImplEE9elementAtEj
                0x0000000000054400       0xbf LINUX/depdom/RangeImpl.o
                0x0000000000054400                _ZN11xercesc_2_715BaseRefVectorOfINS_8NodeImplEE9elementAtEj
 *fill*         0x00000000000544bf        0x1 90909090
 .text._ZN11xercesc_2_715BaseRefVectorOfINS_8NodeImplEE12setElementAtEPS1_j
                0x00000000000544c0       0xdf LINUX/depdom/RangeImpl.o
                0x00000000000544c0                _ZN11xercesc_2_715BaseRefVectorOfINS_8NodeImplEE12setElementAtEPS1_j
 *fill*         0x000000000005459f        0x1 90909090
 .text          0x00000000000545a0       0x81 LINUX/depdom/RefCountedImpl.o
                0x00000000000545a0                _ZN11xercesc_2_714RefCountedImplC1Ev
                0x00000000000545a0                _ZN11xercesc_2_714RefCountedImplC2Ev
                0x00000000000545b6                _ZN11xercesc_2_714RefCountedImplD1Ev
                0x00000000000545b6                _ZN11xercesc_2_714RefCountedImplD2Ev
                0x00000000000545c6                _ZN11xercesc_2_714RefCountedImpl6addRefEPS0_
                0x00000000000545e8                _ZN11xercesc_2_714RefCountedImpl10referencedEv
                0x00000000000545ea                _ZN11xercesc_2_714RefCountedImpl9removeRefEPS0_
                0x000000000005460c                _ZN11xercesc_2_714RefCountedImpl12unreferencedEv
                0x000000000005460e                _ZN11xercesc_2_714RefCountedImplD0Ev
 *fill*         0x0000000000054621        0x3 90909090
 .text          0x0000000000054624      0x4af LINUX/depdom/TextImpl.o
                0x0000000000054624                _ZN11xercesc_2_78TextImpl10isTextImplEv
                0x000000000005462a                _ZN11xercesc_2_78TextImpl11getNodeTypeEv
                0x0000000000054630                _ZN11xercesc_2_78TextImpl21isIgnorableWhitespaceEv
                0x0000000000054642                _ZN11xercesc_2_78TextImpl22setIgnorableWhitespaceEb
                0x0000000000054682                _ZN11xercesc_2_78TextImpl14reinitTextImplEv
                0x00000000000546ac                _ZN11xercesc_2_78TextImpl9splitTextEj
                0x00000000000549b6                _ZN11xercesc_2_78TextImpl11getNodeNameEv
                0x00000000000549ec                _ZN11xercesc_2_78TextImplD1Ev
                0x00000000000549ec                _ZN11xercesc_2_78TextImplD2Ev
                0x0000000000054a08                _ZN11xercesc_2_78TextImplD0Ev
                0x0000000000054a1c                _ZN11xercesc_2_78TextImplC2ERKS0_b
                0x0000000000054a1c                _ZN11xercesc_2_78TextImplC1ERKS0_b
                0x0000000000054a38                _ZN11xercesc_2_78TextImpl9cloneNodeEb
                0x0000000000054aba                _ZN11xercesc_2_78TextImplC1EPNS_12DocumentImplERKNS_9DOMStringE
                0x0000000000054aba                _ZN11xercesc_2_78TextImplC2EPNS_12DocumentImplERKNS_9DOMStringE
 *fill*         0x0000000000054ad3        0xd 90909090
 .text          0x0000000000054ae0     0x1853 LINUX/depdom/TreeWalkerImpl.o
                0x0000000000054ae0                _ZN11xercesc_2_714TreeWalkerImpl13getWhatToShowEv
                0x0000000000054ae6                _ZN11xercesc_2_714TreeWalkerImpl9getFilterEv
                0x0000000000054aec                _ZN11xercesc_2_714TreeWalkerImpl25getExpandEntityReferencesEv
                0x0000000000054af2                _ZN11xercesc_2_714TreeWalkerImpl10acceptNodeENS_8DOM_NodeE
                0x0000000000054b9c                _ZN11xercesc_2_714TreeWalkerImpl14getCurrentNodeEv
                0x0000000000054bae                _ZN11xercesc_2_714TreeWalkerImpl7getRootEv
                0x0000000000054bc0                _ZN11xercesc_2_714TreeWalkerImpl13getParentNodeENS_8DOM_NodeE
                0x0000000000054d18                _ZN11xercesc_2_714TreeWalkerImpl18getPreviousSiblingENS_8DOM_NodeE
                0x0000000000055068                _ZN11xercesc_2_714TreeWalkerImpl12getLastChildENS_8DOM_NodeE
                0x000000000005520e                _ZN11xercesc_2_714TreeWalkerImpl12previousNodeEv
                0x0000000000055440                _ZN11xercesc_2_714TreeWalkerImpl15previousSiblingEv
                0x000000000005552e                _ZN11xercesc_2_714TreeWalkerImpl9lastChildEv
                0x000000000005561c                _ZN11xercesc_2_714TreeWalkerImpl14setCurrentNodeENS_8DOM_NodeE
                0x000000000005562e                _ZN11xercesc_2_714TreeWalkerImplaSERKS0_
                0x000000000005568a                _ZN11xercesc_2_714TreeWalkerImpl14getNextSiblingENS_8DOM_NodeE
                0x00000000000559e2                _ZN11xercesc_2_714TreeWalkerImpl13getFirstChildENS_8DOM_NodeE
                0x0000000000055b84                _ZN11xercesc_2_714TreeWalkerImpl10firstChildEv
                0x0000000000055c72                _ZN11xercesc_2_714TreeWalkerImpl8nextNodeEv
                0x0000000000055f64                _ZN11xercesc_2_714TreeWalkerImpl11nextSiblingEv
                0x0000000000056052                _ZN11xercesc_2_714TreeWalkerImpl10parentNodeEv
                0x0000000000056148                _ZN11xercesc_2_714TreeWalkerImpl12unreferencedEv
                0x00000000000561fc                _ZN11xercesc_2_714TreeWalkerImplC2ERKS0_
                0x00000000000561fc                _ZN11xercesc_2_714TreeWalkerImplC1ERKS0_
                0x0000000000056290                _ZN11xercesc_2_714TreeWalkerImplC2ENS_8DOM_NodeEmPNS_14DOM_NodeFilterEb
                0x0000000000056290                _ZN11xercesc_2_714TreeWalkerImplC1ENS_8DOM_NodeEmPNS_14DOM_NodeFilterEb
 *fill*         0x0000000000056333        0x1 90909090
 .text._ZNK11xercesc_2_715BaseRefVectorOfINS_14TreeWalkerImplEE4sizeEv
                0x0000000000056334        0x4 LINUX/depdom/TreeWalkerImpl.o
                0x0000000000056334                _ZNK11xercesc_2_715BaseRefVectorOfINS_14TreeWalkerImplEE4sizeEv
 *fill*         0x0000000000056338        0x8 90909090
 .text._ZN11xercesc_2_714TreeWalkerImplD2Ev
                0x0000000000056340       0x6d LINUX/depdom/TreeWalkerImpl.o
                0x0000000000056340                _ZN11xercesc_2_714TreeWalkerImplD1Ev
                0x0000000000056340                _ZN11xercesc_2_714TreeWalkerImplD2Ev
 *fill*         0x00000000000563ad        0x3 90909090
 .text._ZN11xercesc_2_715BaseRefVectorOfINS_14TreeWalkerImplEE9elementAtEj
                0x00000000000563b0       0xbf LINUX/depdom/TreeWalkerImpl.o
                0x00000000000563b0                _ZN11xercesc_2_715BaseRefVectorOfINS_14TreeWalkerImplEE9elementAtEj
 *fill*         0x000000000005646f        0x1 90909090
 .text._ZN11xercesc_2_714TreeWalkerImplD0Ev
                0x0000000000056470       0x75 LINUX/depdom/TreeWalkerImpl.o
                0x0000000000056470                _ZN11xercesc_2_714TreeWalkerImplD0Ev
 *fill*         0x00000000000564e5        0xb 90909090
 .text          0x00000000000564f0      0x564 LINUX/depdom/XMLDeclImpl.o
                0x00000000000564f0                _ZN11xercesc_2_711XMLDeclImpl11getNodeTypeEv
                0x000000000005650c                _ZN11xercesc_2_711XMLDeclImpl17reinitXMLDeclImplEv
                0x0000000000056536                _ZN11xercesc_2_711XMLDeclImpl13setStandaloneERKNS_9DOMStringE
                0x0000000000056588                _ZN11xercesc_2_711XMLDeclImpl11setEncodingERKNS_9DOMStringE
                0x00000000000565da                _ZN11xercesc_2_711XMLDeclImpl10setVersionERKNS_9DOMStringE
                0x000000000005662c                _ZNK11xercesc_2_711XMLDeclImpl13getStandaloneEv
                0x000000000005663e                _ZNK11xercesc_2_711XMLDeclImpl11getEncodingEv
                0x0000000000056650                _ZNK11xercesc_2_711XMLDeclImpl10getVersionEv
                0x0000000000056662                _ZN11xercesc_2_711XMLDeclImpl11getNodeNameEv
                0x0000000000056698                _ZN11xercesc_2_711XMLDeclImplD2Ev
                0x0000000000056698                _ZN11xercesc_2_711XMLDeclImplD1Ev
                0x000000000005671e                _ZN11xercesc_2_711XMLDeclImplD0Ev
                0x0000000000056732                _ZN11xercesc_2_711XMLDeclImplC1ERKS0_b
                0x0000000000056732                _ZN11xercesc_2_711XMLDeclImplC2ERKS0_b
                0x0000000000056880                _ZN11xercesc_2_711XMLDeclImpl9cloneNodeEb
                0x0000000000056902                _ZN11xercesc_2_711XMLDeclImplC2EPNS_12DocumentImplERKNS_9DOMStringES5_S5_
                0x0000000000056902                _ZN11xercesc_2_711XMLDeclImplC1EPNS_12DocumentImplERKNS_9DOMStringES5_S5_
                0x00000000000569a8                _ZN11xercesc_2_711XMLDeclImplC1EPNS_12DocumentImplE
                0x00000000000569a8                _ZN11xercesc_2_711XMLDeclImplC2EPNS_12DocumentImplE
 *fill*         0x0000000000056a54        0xc 90909090
 .text          0x0000000000056a60       0x36 /usr/lib/gcc/x86_64-redhat-linux/4.4.7/crtendS.o
 *fill*         0x0000000000056a96        0x2 90909090
 .text          0x0000000000056a98        0x0 /usr/lib/gcc/x86_64-redhat-linux/4.4.7/../../../../lib64/crtn.o
 *(.gnu.warning)

.fini           0x0000000000056a98        0xe
 *(.fini)
 .fini          0x0000000000056a98        0x4 /usr/lib/gcc/x86_64-redhat-linux/4.4.7/../../../../lib64/crti.o
                0x0000000000056a98                _fini
 .fini          0x0000000000056a9c        0x5 /usr/lib/gcc/x86_64-redhat-linux/4.4.7/crtbeginS.o
 .fini          0x0000000000056aa1        0x5 /usr/lib/gcc/x86_64-redhat-linux/4.4.7/../../../../lib64/crtn.o
                0x0000000000056aa6                PROVIDE (__etext, .)
                0x0000000000056aa6                PROVIDE (_etext, .)
                0x0000000000056aa6                PROVIDE (etext, .)

.rodata         0x0000000000056ac0      0xfcd
 *(.rodata .rodata.* .gnu.linkonce.r.*)
 .rodata.str1.8
                0x0000000000056ac0       0x5e LINUX/depdom/AttrImpl.o
 .rodata.str1.1
                0x0000000000056b1e        0x3 LINUX/depdom/AttrImpl.o
                                          0x5 (size before relaxing)
 *fill*         0x0000000000056b21        0xf 00
 .rodata._ZTSN11xercesc_2_710XMLDeleterE
                0x0000000000056b30       0x1c LINUX/depdom/AttrImpl.o
                0x0000000000056b30                _ZTSN11xercesc_2_710XMLDeleterE
 *fill*         0x0000000000056b4c        0x4 00
 .rodata._ZTSN11xercesc_2_78AttrImplE
                0x0000000000056b50       0x19 LINUX/depdom/AttrImpl.o
                0x0000000000056b50                _ZTSN11xercesc_2_78AttrImplE
 *fill*         0x0000000000056b69       0x17 00
 .rodata._ZTSN11xercesc_2_730ArrayIndexOutOfBoundsExceptionE
                0x0000000000056b80       0x30 LINUX/depdom/AttrImpl.o
                0x0000000000056b80                _ZTSN11xercesc_2_730ArrayIndexOutOfBoundsExceptionE
 .rodata._ZTSN11xercesc_2_711AttrMapImplE
                0x0000000000056bb0       0x1d LINUX/depdom/AttrMapImpl.o
                0x0000000000056bb0                _ZTSN11xercesc_2_711AttrMapImplE
 *fill*         0x0000000000056bcd        0x3 00
 .rodata._ZTSN11xercesc_2_710AttrNSImplE
                0x0000000000056bd0       0x1c LINUX/depdom/AttrNSImpl.o
                0x0000000000056bd0                _ZTSN11xercesc_2_710AttrNSImplE
 .rodata.str1.1
                0x0000000000056bec        0xf LINUX/depdom/CDATASectionImpl.o
 *fill*         0x0000000000056bfb        0x5 00
 .rodata._ZTSN11xercesc_2_716CDATASectionImplE
                0x0000000000056c00       0x22 LINUX/depdom/CDATASectionImpl.o
                0x0000000000056c00                _ZTSN11xercesc_2_716CDATASectionImplE
 .rodata.str1.8
                0x0000000000000000       0x5e LINUX/depdom/CharacterDataImpl.o
 *fill*         0x0000000000056c22       0x1e 00
 .rodata._ZTSN11xercesc_2_717CharacterDataImplE
                0x0000000000056c40       0x23 LINUX/depdom/CharacterDataImpl.o
                0x0000000000056c40                _ZTSN11xercesc_2_717CharacterDataImplE
 *fill*         0x0000000000056c63        0xd 00
 .rodata._ZTSN11xercesc_2_79ChildNodeE
                0x0000000000056c70       0x1a LINUX/depdom/ChildNode.o
                0x0000000000056c70                _ZTSN11xercesc_2_79ChildNodeE
 .rodata.str1.1
                0x0000000000056c8a        0x9 LINUX/depdom/CommentImpl.o
 *fill*         0x0000000000056c93        0xd 00
 .rodata._ZTSN11xercesc_2_711CommentImplE
                0x0000000000056ca0       0x1d LINUX/depdom/CommentImpl.o
                0x0000000000056ca0                _ZTSN11xercesc_2_711CommentImplE
 .rodata.str1.1
                0x0000000000056cbd        0x2 LINUX/depdom/DeepNodeListImpl.o
 *fill*         0x0000000000056cbf        0x1 00
 .rodata._ZTSN11xercesc_2_716DeepNodeListImplE
                0x0000000000056cc0       0x22 LINUX/depdom/DeepNodeListImpl.o
                0x0000000000056cc0                _ZTSN11xercesc_2_716DeepNodeListImplE
 .rodata.str1.1
                0x0000000000056ce2       0x13 LINUX/depdom/DocumentFragmentImpl.o
 *fill*         0x0000000000056cf5        0xb 00
 .rodata._ZTSN11xercesc_2_720DocumentFragmentImplE
                0x0000000000056d00       0x26 LINUX/depdom/DocumentFragmentImpl.o
                0x0000000000056d00                _ZTSN11xercesc_2_720DocumentFragmentImplE
 *fill*         0x0000000000056d26        0x2 00
 .rodata.str1.8
                0x0000000000056d28       0x5d LINUX/depdom/DocumentImpl.o
                                         0xbe (size before relaxing)
 *fill*         0x0000000000056d85        0x3 00
 .rodata        0x0000000000056d88       0x34 LINUX/depdom/DocumentImpl.o
 .rodata.str1.1
                0x0000000000056dbc        0xa LINUX/depdom/DocumentImpl.o
 *fill*         0x0000000000056dc6        0xa 00
 .rodata._ZTSN11xercesc_2_712DocumentImplE
                0x0000000000056dd0       0x1e LINUX/depdom/DocumentImpl.o
                0x0000000000056dd0                _ZTSN11xercesc_2_712DocumentImplE
 *fill*         0x0000000000056dee       0x12 00
 .rodata._ZTSN11xercesc_2_724IllegalArgumentExceptionE
                0x0000000000056e00       0x2a LINUX/depdom/DocumentImpl.o
                0x0000000000056e00                _ZTSN11xercesc_2_724IllegalArgumentExceptionE
 *fill*         0x0000000000056e2a       0x16 00
 .rodata._ZTSN11xercesc_2_722NoSuchElementExceptionE
                0x0000000000056e40       0x28 LINUX/depdom/DocumentImpl.o
                0x0000000000056e40                _ZTSN11xercesc_2_722NoSuchElementExceptionE
 *fill*         0x0000000000056e68       0x18 00
 .rodata._ZTSN11xercesc_2_711RefVectorOfINS_9RangeImplEEE
                0x0000000000056e80       0x2d LINUX/depdom/DocumentImpl.o
                0x0000000000056e80                _ZTSN11xercesc_2_711RefVectorOfINS_9RangeImplEEE
 *fill*         0x0000000000056ead       0x13 00
 .rodata._ZTSN11xercesc_2_715BaseRefVectorOfINS_9RangeImplEEE
                0x0000000000056ec0       0x31 LINUX/depdom/DocumentImpl.o
                0x0000000000056ec0                _ZTSN11xercesc_2_715BaseRefVectorOfINS_9RangeImplEEE
 *fill*         0x0000000000056ef1        0xf 00
 .rodata._ZTSN11xercesc_2_77XMemoryE
                0x0000000000056f00       0x18 LINUX/depdom/DocumentImpl.o
                0x0000000000056f00                _ZTSN11xercesc_2_77XMemoryE
 *fill*         0x0000000000056f18        0x8 00
 .rodata._ZTSN11xercesc_2_711RefVectorOfINS_14TreeWalkerImplEEE
                0x0000000000056f20       0x33 LINUX/depdom/DocumentImpl.o
                0x0000000000056f20                _ZTSN11xercesc_2_711RefVectorOfINS_14TreeWalkerImplEEE
 *fill*         0x0000000000056f53        0xd 00
 .rodata._ZTSN11xercesc_2_715BaseRefVectorOfINS_14TreeWalkerImplEEE
                0x0000000000056f60       0x37 LINUX/depdom/DocumentImpl.o
                0x0000000000056f60                _ZTSN11xercesc_2_715BaseRefVectorOfINS_14TreeWalkerImplEEE
 *fill*         0x0000000000056f97        0x9 00
 .rodata._ZTSN11xercesc_2_711RefVectorOfINS_16NodeIteratorImplEEE
                0x0000000000056fa0       0x35 LINUX/depdom/DocumentImpl.o
                0x0000000000056fa0                _ZTSN11xercesc_2_711RefVectorOfINS_16NodeIteratorImplEEE
 *fill*         0x0000000000056fd5        0xb 00
 .rodata._ZTSN11xercesc_2_715BaseRefVectorOfINS_16NodeIteratorImplEEE
                0x0000000000056fe0       0x39 LINUX/depdom/DocumentImpl.o
                0x0000000000056fe0                _ZTSN11xercesc_2_715BaseRefVectorOfINS_16NodeIteratorImplEEE
 *fill*         0x0000000000057019        0x7 00
 .rodata._ZTSN11xercesc_2_716DocumentTypeImplE
                0x0000000000057020       0x22 LINUX/depdom/DocumentTypeImpl.o
                0x0000000000057020                _ZTSN11xercesc_2_716DocumentTypeImplE
 *fill*         0x0000000000057042       0x1e 00
 .rodata._ZTSN11xercesc_2_716DOM_DOMExceptionE
                0x0000000000057060       0x22 LINUX/depdom/DOM_DOMException.o
                0x0000000000057060                _ZTSN11xercesc_2_716DOM_DOMExceptionE
 .rodata.str1.1
                0x0000000000057082       0x21 LINUX/depdom/DOM_DOMImplementation.o
 *fill*         0x00000000000570a3        0x5 00
 .rodata.str1.8
                0x00000000000570a8      0x12c LINUX/depdom/DomMemDebug.o
 .rodata.str1.1
                0x00000000000571d4       0x50 LINUX/depdom/DomMemDebug.o
 .rodata        0x0000000000057224        0x4 LINUX/depdom/DOM_NamedNodeMap.o
                0x0000000000057224                _ZN11xercesc_2_716DOM_NamedNodeMap11NNM_ELEMENTE
                0x0000000000057226                _ZN11xercesc_2_716DOM_NamedNodeMap9NNM_OTHERE
 *fill*         0x0000000000057228       0x18 00
 .rodata._ZTSN11xercesc_2_714DOM_NodeFilterE
                0x0000000000057240       0x20 LINUX/depdom/DOM_NodeFilter.o
                0x0000000000057240                _ZTSN11xercesc_2_714DOM_NodeFilterE
 .rodata.str1.1
                0x0000000000057260        0xe LINUX/depdom/DOMParser.o
 *fill*         0x000000000005726e        0x2 00
 .rodata        0x0000000000057270       0x40 LINUX/depdom/DOMParser.o
 .rodata.str1.8
                0x00000000000572b0       0xbb LINUX/depdom/DOMParser.o
                                        0x11b (size before relaxing)
 *fill*         0x000000000005736b       0x15 00
 .rodata._ZTSN11xercesc_2_715ContentSpecNodeE
                0x0000000000057380       0x21 LINUX/depdom/DOMParser.o
                0x0000000000057380                _ZTSN11xercesc_2_715ContentSpecNodeE
 *fill*         0x00000000000573a1        0xf 00
 .rodata._ZTSN11xercesc_2_79DOMParserE
                0x00000000000573b0       0x1a LINUX/depdom/DOMParser.o
                0x00000000000573b0                _ZTSN11xercesc_2_79DOMParserE
 *fill*         0x00000000000573ca        0x6 00
 .rodata._ZTSN11xercesc_2_713XMLAttDefListE
                0x00000000000573d0       0x1f LINUX/depdom/DOMParser.o
                0x00000000000573d0                _ZTSN11xercesc_2_713XMLAttDefListE
 *fill*         0x00000000000573ef        0x1 00
 .rodata._ZTSN11xercesc_2_713DTDEntityDeclE
                0x00000000000573f0       0x1f LINUX/depdom/DOMParser.o
                0x00000000000573f0                _ZTSN11xercesc_2_713DTDEntityDeclE
 *fill*         0x000000000005740f        0x1 00
 .rodata._ZTSN11xercesc_2_710XMLRefInfoE
                0x0000000000057410       0x1c LINUX/depdom/DOMParser.o
                0x0000000000057410                _ZTSN11xercesc_2_710XMLRefInfoE
 *fill*         0x000000000005742c        0x4 00
 .rodata._ZTSN11xercesc_2_713XSerializableE
                0x0000000000057430       0x1f LINUX/depdom/DOMParser.o
                0x0000000000057430                _ZTSN11xercesc_2_713XSerializableE
 *fill*         0x000000000005744f       0x11 00
 .rodata._ZTSN11xercesc_2_718XMLDocumentHandlerE
                0x0000000000057460       0x24 LINUX/depdom/DOMParser.o
                0x0000000000057460                _ZTSN11xercesc_2_718XMLDocumentHandlerE
 *fill*         0x0000000000057484       0x1c 00
 .rodata._ZTSN11xercesc_2_716XMLErrorReporterE
                0x00000000000574a0       0x22 LINUX/depdom/DOMParser.o
                0x00000000000574a0                _ZTSN11xercesc_2_716XMLErrorReporterE
 *fill*         0x00000000000574c2       0x1e 00
 .rodata._ZTSN11xercesc_2_716XMLEntityHandlerE
                0x00000000000574e0       0x22 LINUX/depdom/DOMParser.o
                0x00000000000574e0                _ZTSN11xercesc_2_716XMLEntityHandlerE
 *fill*         0x0000000000057502       0x1e 00
 .rodata._ZTSN11xercesc_2_714DocTypeHandlerE
                0x0000000000057520       0x20 LINUX/depdom/DOMParser.o
                0x0000000000057520                _ZTSN11xercesc_2_714DocTypeHandlerE
 .rodata._ZTSN11xercesc_2_711IOExceptionE
                0x0000000000057540       0x1d LINUX/depdom/DOMParser.o
                0x0000000000057540                _ZTSN11xercesc_2_711IOExceptionE
 *fill*         0x000000000005755d        0x3 00
 .rodata._ZTSN11xercesc_2_719EmptyStackExceptionE
                0x0000000000057560       0x25 LINUX/depdom/DOMParser.o
                0x0000000000057560                _ZTSN11xercesc_2_719EmptyStackExceptionE
 *fill*         0x0000000000057585       0x1b 00
 .rodata._ZTSN11xercesc_2_720OutOfMemoryExceptionE
                0x00000000000575a0       0x26 LINUX/depdom/DOMParser.o
                0x00000000000575a0                _ZTSN11xercesc_2_720OutOfMemoryExceptionE
 *fill*         0x00000000000575c6        0x2 00
 .rodata.cst8   0x00000000000575c8        0x8 LINUX/depdom/DOMParser.o
 *fill*         0x00000000000575d0       0x10 00
 .rodata._ZTSN11xercesc_2_718DOM_RangeExceptionE
                0x00000000000575e0       0x24 LINUX/depdom/DOM_RangeException.o
                0x00000000000575e0                _ZTSN11xercesc_2_718DOM_RangeExceptionE
 *fill*         0x0000000000057604       0x1c 00
 .rodata._ZTSN11xercesc_2_721ElementDefinitionImplE
                0x0000000000057620       0x27 LINUX/depdom/ElementDefinitionImpl.o
                0x0000000000057620                _ZTSN11xercesc_2_721ElementDefinitionImplE
 .rodata.str1.1
                0x0000000000000000        0xe LINUX/depdom/ElementImpl.o
                                          0x1 (size before relaxing)
 *fill*         0x0000000000057647        0x9 00
 .rodata._ZTSN11xercesc_2_711ElementImplE
                0x0000000000057650       0x1d LINUX/depdom/ElementImpl.o
                0x0000000000057650                _ZTSN11xercesc_2_711ElementImplE
 *fill*         0x000000000005766d        0x3 00
 .rodata._ZTSN11xercesc_2_713ElementNSImplE
                0x0000000000057670       0x1f LINUX/depdom/ElementNSImpl.o
                0x0000000000057670                _ZTSN11xercesc_2_713ElementNSImplE
 *fill*         0x000000000005768f        0x1 00
 .rodata._ZTSN11xercesc_2_710EntityImplE
                0x0000000000057690       0x1c LINUX/depdom/EntityImpl.o
                0x0000000000057690                _ZTSN11xercesc_2_710EntityImplE
 *fill*         0x00000000000576ac       0x14 00
 .rodata._ZTSN11xercesc_2_719EntityReferenceImplE
                0x00000000000576c0       0x25 LINUX/depdom/EntityReferenceImpl.o
                0x00000000000576c0                _ZTSN11xercesc_2_719EntityReferenceImplE
 *fill*         0x00000000000576e5       0x1b 00
 .rodata._ZTSN11xercesc_2_716NamedNodeMapImplE
                0x0000000000057700       0x22 LINUX/depdom/NamedNodeMapImpl.o
                0x0000000000057700                _ZTSN11xercesc_2_716NamedNodeMapImplE
 .rodata.str1.1
                0x0000000000057722        0xe LINUX/depdom/NodeIDMap.o
 .rodata._ZTSN11xercesc_2_79NodeIDMapE
                0x0000000000057730       0x1a LINUX/depdom/NodeIDMap.o
                0x0000000000057730                _ZTSN11xercesc_2_79NodeIDMapE
 *fill*         0x000000000005774a        0x6 00
 .rodata        0x0000000000057750       0x14 LINUX/depdom/NodeIDMap.o
 *fill*         0x0000000000057764       0x1c 00
 .rodata._ZTSN11xercesc_2_716RuntimeExceptionE
                0x0000000000057780       0x22 LINUX/depdom/NodeIDMap.o
                0x0000000000057780                _ZTSN11xercesc_2_716RuntimeExceptionE
 *fill*         0x00000000000577a2        0x2 00
 .rodata.cst4   0x00000000000577a4        0x8 LINUX/depdom/NodeIDMap.o
 *fill*         0x00000000000577ac        0x4 00
 .rodata.str1.8
                0x00000000000577b0       0x28 LINUX/depdom/NodeImpl.o
                                         0x25 (size before relaxing)
 .rodata.str1.1
                0x00000000000577d8       0x2f LINUX/depdom/NodeImpl.o
 *fill*         0x0000000000057807        0x1 00
 .rodata        0x0000000000057808       0x16 LINUX/depdom/NodeImpl.o
                0x0000000000057808                _ZN11xercesc_2_78NodeImpl8READONLYE
                0x000000000005780a                _ZN11xercesc_2_78NodeImpl8SYNCDATAE
                0x000000000005780c                _ZN11xercesc_2_78NodeImpl12SYNCCHILDRENE
                0x000000000005780e                _ZN11xercesc_2_78NodeImpl5OWNEDE
                0x0000000000057810                _ZN11xercesc_2_78NodeImpl10FIRSTCHILDE
                0x0000000000057812                _ZN11xercesc_2_78NodeImpl9SPECIFIEDE
                0x0000000000057814                _ZN11xercesc_2_78NodeImpl11IGNORABLEWSE
                0x0000000000057816                _ZN11xercesc_2_78NodeImpl8SETVALUEE
                0x0000000000057818                _ZN11xercesc_2_78NodeImpl7ID_ATTRE
                0x000000000005781a                _ZN11xercesc_2_78NodeImpl8USERDATAE
                0x000000000005781c                _ZN11xercesc_2_78NodeImpl9HASSTRINGE
 *fill*         0x000000000005781e        0x2 00
 .rodata._ZTSN11xercesc_2_78NodeImplE
                0x0000000000057820       0x19 LINUX/depdom/NodeImpl.o
                0x0000000000057820                _ZTSN11xercesc_2_78NodeImplE
 .rodata.str1.8
                0x0000000000000000       0x5e LINUX/depdom/NodeIteratorImpl.o
 *fill*         0x0000000000057839        0x7 00
 .rodata._ZTSN11xercesc_2_716NodeIteratorImplE
                0x0000000000057840       0x22 LINUX/depdom/NodeIteratorImpl.o
                0x0000000000057840                _ZTSN11xercesc_2_716NodeIteratorImplE
 *fill*         0x0000000000057862        0xe 00
 .rodata._ZTSN11xercesc_2_712NodeListImplE
                0x0000000000057870       0x1e LINUX/depdom/NodeListImpl.o
                0x0000000000057870                _ZTSN11xercesc_2_712NodeListImplE
 *fill*         0x000000000005788e        0x2 00
 .rodata._ZTSN11xercesc_2_712NotationImplE
                0x0000000000057890       0x1e LINUX/depdom/NotationImpl.o
                0x0000000000057890                _ZTSN11xercesc_2_712NotationImplE
 .rodata.str1.8
                0x0000000000000000       0x5e LINUX/depdom/ParentNode.o
 *fill*         0x00000000000578ae        0x2 00
 .rodata._ZTSN11xercesc_2_710ParentNodeE
                0x00000000000578b0       0x1c LINUX/depdom/ParentNode.o
                0x00000000000578b0                _ZTSN11xercesc_2_710ParentNodeE
 *fill*         0x00000000000578cc       0x14 00
 .rodata._ZTSN11xercesc_2_725ProcessingInstructionImplE
                0x00000000000578e0       0x2b LINUX/depdom/ProcessingInstructionImpl.o
                0x00000000000578e0                _ZTSN11xercesc_2_725ProcessingInstructionImplE
 .rodata.str1.8
                0x0000000000000000       0x5e LINUX/depdom/RangeImpl.o
 *fill*         0x000000000005790b        0x5 00
 .rodata._ZTSN11xercesc_2_79RangeImplE
                0x0000000000057910       0x1a LINUX/depdom/RangeImpl.o
                0x0000000000057910                _ZTSN11xercesc_2_79RangeImplE
 *fill*         0x000000000005792a       0x16 00
 .rodata._ZTSN11xercesc_2_711RefVectorOfINS_8NodeImplEEE
                0x0000000000057940       0x2c LINUX/depdom/RangeImpl.o
                0x0000000000057940                _ZTSN11xercesc_2_711RefVectorOfINS_8NodeImplEEE
 *fill*         0x000000000005796c       0x14 00
 .rodata._ZTSN11xercesc_2_715BaseRefVectorOfINS_8NodeImplEEE
                0x0000000000057980       0x30 LINUX/depdom/RangeImpl.o
                0x0000000000057980                _ZTSN11xercesc_2_715BaseRefVectorOfINS_8NodeImplEEE
 .rodata        0x00000000000579b0       0x15 LINUX/depdom/RangeImpl.o
 *fill*         0x00000000000579c5       0x1b 00
 .rodata._ZTSN11xercesc_2_714RefCountedImplE
                0x00000000000579e0       0x20 LINUX/depdom/RefCountedImpl.o
                0x00000000000579e0                _ZTSN11xercesc_2_714RefCountedImplE
 .rodata.str1.8
                0x0000000000000000       0x5e LINUX/depdom/TextImpl.o
 .rodata.str1.1
                0x0000000000057a00        0x6 LINUX/depdom/TextImpl.o
 *fill*         0x0000000000057a06        0xa 00
 .rodata._ZTSN11xercesc_2_78TextImplE
                0x0000000000057a10       0x19 LINUX/depdom/TextImpl.o
                0x0000000000057a10                _ZTSN11xercesc_2_78TextImplE
 .rodata.str1.8
                0x0000000000000000       0x5e LINUX/depdom/TreeWalkerImpl.o
 *fill*         0x0000000000057a29       0x17 00
 .rodata._ZTSN11xercesc_2_714TreeWalkerImplE
                0x0000000000057a40       0x20 LINUX/depdom/TreeWalkerImpl.o
                0x0000000000057a40                _ZTSN11xercesc_2_714TreeWalkerImplE
 .rodata.str1.1
                0x0000000000057a60        0x9 LINUX/depdom/XMLDeclImpl.o
 *fill*         0x0000000000057a69        0x7 00
 .rodata._ZTSN11xercesc_2_711XMLDeclImplE
                0x0000000000057a70       0x1d LINUX/depdom/XMLDeclImpl.o
                0x0000000000057a70                _ZTSN11xercesc_2_711XMLDeclImplE

.rodata1
 *(.rodata1)

.eh_frame_hdr   0x0000000000057a90     0x261c
 *(.eh_frame_hdr)
 .eh_frame_hdr  0x0000000000057a90     0x261c LINUX/depdom/AttrImpl.o

.eh_frame       0x000000000005a0b0     0x9f9c
 *(.eh_frame)
 .eh_frame      0x000000000005a0b0      0x610 LINUX/depdom/AttrImpl.o
                                        0x598 (size before relaxing)
 .eh_frame      0x000000000005a6c0      0x120 LINUX/depdom/AttrMapImpl.o
                                        0x170 (size before relaxing)
 .eh_frame      0x000000000005a7e0      0x1a0 LINUX/depdom/AttrNSImpl.o
                                        0x1f0 (size before relaxing)
 .eh_frame      0x000000000005a980      0x128 LINUX/depdom/CDATASectionImpl.o
                                        0x170 (size before relaxing)
 .eh_frame      0x000000000005aaa8      0x220 LINUX/depdom/CharacterDataImpl.o
                                        0x310 (size before relaxing)
 .eh_frame      0x000000000005acc8       0xc0 LINUX/depdom/ChildNode.o
                                         0xc8 (size before relaxing)
 .eh_frame      0x000000000005ad88      0x110 LINUX/depdom/CommentImpl.o
                                        0x160 (size before relaxing)
 .eh_frame      0x000000000005ae98      0x1a8 LINUX/depdom/DeepNodeListImpl.o
                                        0x1f0 (size before relaxing)
 .eh_frame      0x000000000005b040      0x130 LINUX/depdom/DocumentFragmentImpl.o
                                        0x178 (size before relaxing)
 .eh_frame      0x000000000005b170     0x1090 LINUX/depdom/DocumentImpl.o
 .eh_frame      0x000000000005c200      0x320 LINUX/depdom/DocumentTypeImpl.o
                                        0x338 (size before relaxing)
 .eh_frame      0x000000000005c520      0x120 LINUX/depdom/DOM_Attr.o
                                        0x158 (size before relaxing)
 .eh_frame      0x000000000005c640       0x90 LINUX/depdom/DOM_CDATASection.o
                                         0xb0 (size before relaxing)
 .eh_frame      0x000000000005c6d0      0x160 LINUX/depdom/DOM_CharacterData.o
                                        0x178 (size before relaxing)
 .eh_frame      0x000000000005c830       0x90 LINUX/depdom/DOM_Comment.o
                                         0xb0 (size before relaxing)
 .eh_frame      0x000000000005c8c0       0x90 LINUX/depdom/DOM_DocumentFragment.o
                                         0xb0 (size before relaxing)
 .eh_frame      0x000000000005c950      0x410 LINUX/depdom/DOM_Document.o
                                        0x418 (size before relaxing)
 .eh_frame      0x000000000005cd60      0x168 LINUX/depdom/DOM_DocumentType.o
                                        0x1a0 (size before relaxing)
 .eh_frame      0x000000000005cec8       0x98 LINUX/depdom/DOM_DOMException.o
                                         0xa8 (size before relaxing)
 .eh_frame      0x000000000005cf60      0x158 LINUX/depdom/DOM_DOMImplementation.o
                                        0x1a8 (size before relaxing)
 .eh_frame      0x000000000005d0b8      0x288 LINUX/depdom/DOM_Element.o
                                        0x2a8 (size before relaxing)
 .eh_frame      0x000000000005d340      0x1a8 LINUX/depdom/DOM_Entity.o
                                        0x1d0 (size before relaxing)
 .eh_frame      0x000000000005d4e8       0x90 LINUX/depdom/DOM_EntityReference.o
                                         0xb0 (size before relaxing)
 .eh_frame      0x000000000005d578       0xb8 LINUX/depdom/DomMemDebug.o
                                         0xc8 (size before relaxing)
 .eh_frame      0x000000000005d630      0x210 LINUX/depdom/DOM_NamedNodeMap.o
                                        0x1f8 (size before relaxing)
 .eh_frame      0x000000000005d840       0x50 LINUX/depdom/DOM_NodeFilter.o
                                         0x60 (size before relaxing)
 .eh_frame      0x000000000005d890      0x1c8 LINUX/depdom/DOM_NodeIterator.o
                                        0x1b8 (size before relaxing)
 .eh_frame      0x000000000005da58      0x140 LINUX/depdom/DOM_NodeList.o
                                        0x138 (size before relaxing)
 .eh_frame      0x000000000005db98      0x438 LINUX/depdom/DOM_Node.o
                                        0x450 (size before relaxing)
 .eh_frame      0x000000000005dfd0       0xd0 LINUX/depdom/DOM_Notation.o
                                         0xe8 (size before relaxing)
 .eh_frame      0x000000000005e0a0     0x1410 LINUX/depdom/DOMParser.o
                                       0x1308 (size before relaxing)
 .eh_frame      0x000000000005f4b0       0xf8 LINUX/depdom/DOM_ProcessingInstruction.o
                                        0x130 (size before relaxing)
 .eh_frame      0x000000000005f5a8       0x98 LINUX/depdom/DOM_RangeException.o
                                         0xa8 (size before relaxing)
 .eh_frame      0x000000000005f640      0x380 LINUX/depdom/DOM_Range.o
                                        0x390 (size before relaxing)
 .eh_frame      0x000000000005f9c0      0x690 LINUX/depdom/DOMString.o
                                        0x678 (size before relaxing)
 .eh_frame      0x0000000000060050       0xc8 LINUX/depdom/DOM_Text.o
                                         0xe0 (size before relaxing)
 .eh_frame      0x0000000000060118      0x278 LINUX/depdom/DOM_TreeWalker.o
                                        0x270 (size before relaxing)
 .eh_frame      0x0000000000060390       0xf0 LINUX/depdom/DOM_XMLDecl.o
                                        0x100 (size before relaxing)
 .eh_frame      0x0000000000060480      0x128 LINUX/depdom/DStringPool.o
                                        0x190 (size before relaxing)
 .eh_frame      0x00000000000605a8      0x108 LINUX/depdom/ElementDefinitionImpl.o
                                        0x158 (size before relaxing)
 .eh_frame      0x00000000000606b0      0x638 LINUX/depdom/ElementImpl.o
 .eh_frame      0x0000000000060ce8      0x180 LINUX/depdom/ElementNSImpl.o
                                        0x1d0 (size before relaxing)
 .eh_frame      0x0000000000060e68      0x1d8 LINUX/depdom/EntityImpl.o
                                        0x218 (size before relaxing)
 .eh_frame      0x0000000000061040      0x130 LINUX/depdom/EntityReferenceImpl.o
                                        0x180 (size before relaxing)
 .eh_frame      0x0000000000061170      0x390 LINUX/depdom/NamedNodeMapImpl.o
                                        0x3c0 (size before relaxing)
 .eh_frame      0x0000000000061500      0x210 LINUX/depdom/NodeIDMap.o
                                        0x268 (size before relaxing)
 .eh_frame      0x0000000000061710      0x638 LINUX/depdom/NodeImpl.o
                                        0x5f0 (size before relaxing)
 .eh_frame      0x0000000000061d48      0x350 LINUX/depdom/NodeIteratorImpl.o
                                        0x3f0 (size before relaxing)
 .eh_frame      0x0000000000062098       0x58 LINUX/depdom/NodeListImpl.o
                                         0x70 (size before relaxing)
 .eh_frame      0x00000000000620f0      0x178 LINUX/depdom/NodeVector.o
                                        0x198 (size before relaxing)
 .eh_frame      0x0000000000062268      0x1a8 LINUX/depdom/NotationImpl.o
                                        0x1c0 (size before relaxing)
 .eh_frame      0x0000000000062410      0x2e0 LINUX/depdom/ParentNode.o
                                        0x3b8 (size before relaxing)
 .eh_frame      0x00000000000626f0      0x1b0 LINUX/depdom/ProcessingInstructionImpl.o
                                        0x1f0 (size before relaxing)
 .eh_frame      0x00000000000628a0      0xf38 LINUX/depdom/RangeImpl.o
                                        0xfa8 (size before relaxing)
 .eh_frame      0x00000000000637d8       0xb0 LINUX/depdom/RefCountedImpl.o
                                         0xb8 (size before relaxing)
 .eh_frame      0x0000000000063888      0x188 LINUX/depdom/TextImpl.o
                                        0x270 (size before relaxing)
 .eh_frame      0x0000000000063a10      0x428 LINUX/depdom/TreeWalkerImpl.o
                                        0x4c0 (size before relaxing)
 .eh_frame      0x0000000000063e38      0x210 LINUX/depdom/XMLDeclImpl.o
                                        0x250 (size before relaxing)
 .eh_frame      0x0000000000064048        0x4 /usr/lib/gcc/x86_64-redhat-linux/4.4.7/crtendS.o

.gcc_except_table
                0x000000000006404c     0x409b
 *(.gcc_except_table .gcc_except_table.*)
 .gcc_except_table
                0x000000000006404c      0x26e LINUX/depdom/AttrImpl.o
 .gcc_except_table
                0x00000000000642ba       0x20 LINUX/depdom/AttrMapImpl.o
 *fill*         0x00000000000642da        0x2 00
 .gcc_except_table
                0x00000000000642dc      0x1f5 LINUX/depdom/AttrNSImpl.o
 .gcc_except_table
                0x00000000000644d1       0x10 LINUX/depdom/CDATASectionImpl.o
 *fill*         0x00000000000644e1        0x3 00
 .gcc_except_table
                0x00000000000644e4      0x18b LINUX/depdom/CharacterDataImpl.o
 .gcc_except_table
                0x000000000006466f       0x10 LINUX/depdom/CommentImpl.o
 .gcc_except_table
                0x000000000006467f       0x9d LINUX/depdom/DeepNodeListImpl.o
 .gcc_except_table
                0x000000000006471c       0x20 LINUX/depdom/DocumentFragmentImpl.o
 .gcc_except_table
                0x000000000006473c      0x6bc LINUX/depdom/DocumentImpl.o
 .gcc_except_table
                0x0000000000064df8      0x17f LINUX/depdom/DocumentTypeImpl.o
 .gcc_except_table
                0x0000000000064f77       0x10 LINUX/depdom/DOM_Attr.o
 .gcc_except_table
                0x0000000000064f87       0x32 LINUX/depdom/DOM_Document.o
 .gcc_except_table
                0x0000000000064fb9       0x40 LINUX/depdom/DOM_DocumentType.o
 *fill*         0x0000000000064ff9        0x3 00
 .gcc_except_table
                0x0000000000064ffc       0x62 LINUX/depdom/DOM_DOMImplementation.o
 .gcc_except_table
                0x000000000006505e       0x30 LINUX/depdom/DOM_Element.o
 .gcc_except_table
                0x000000000006508e       0x30 LINUX/depdom/DOM_Entity.o
 .gcc_except_table
                0x00000000000650be       0x50 LINUX/depdom/DOM_Node.o
 *fill*         0x000000000006510e        0x2 00
 .gcc_except_table
                0x0000000000065110      0x674 LINUX/depdom/DOMParser.o
 .gcc_except_table
                0x0000000000065784       0x30 LINUX/depdom/DOM_ProcessingInstruction.o
 .gcc_except_table
                0x00000000000657b4      0x145 LINUX/depdom/DOMString.o
 .gcc_except_table
                0x00000000000658f9       0x10 LINUX/depdom/DOM_TreeWalker.o
 .gcc_except_table
                0x0000000000065909       0x4c LINUX/depdom/DStringPool.o
 .gcc_except_table
                0x0000000000065955       0x5c LINUX/depdom/ElementDefinitionImpl.o
 *fill*         0x00000000000659b1        0x3 00
 .gcc_except_table
                0x00000000000659b4      0x32b LINUX/depdom/ElementImpl.o
 *fill*         0x0000000000065cdf        0x1 00
 .gcc_except_table
                0x0000000000065ce0      0x1a9 LINUX/depdom/ElementNSImpl.o
 .gcc_except_table
                0x0000000000065e89       0xb1 LINUX/depdom/EntityImpl.o
 *fill*         0x0000000000065f3a        0x2 00
 .gcc_except_table
                0x0000000000065f3c       0x85 LINUX/depdom/EntityReferenceImpl.o
 *fill*         0x0000000000065fc1        0x3 00
 .gcc_except_table
                0x0000000000065fc4      0x234 LINUX/depdom/NamedNodeMapImpl.o
 .gcc_except_table
                0x00000000000661f8       0x79 LINUX/depdom/NodeIDMap.o
 *fill*         0x0000000000066271        0x3 00
 .gcc_except_table
                0x0000000000066274      0x1af LINUX/depdom/NodeImpl.o
 *fill*         0x0000000000066423        0x1 00
 .gcc_except_table
                0x0000000000066424      0x31b LINUX/depdom/NodeIteratorImpl.o
 *fill*         0x000000000006673f        0x1 00
 .gcc_except_table
                0x0000000000066740       0xdf LINUX/depdom/NotationImpl.o
 *fill*         0x000000000006681f        0x1 00
 .gcc_except_table
                0x0000000000066820      0x12d LINUX/depdom/ParentNode.o
 *fill*         0x000000000006694d        0x3 00
 .gcc_except_table
                0x0000000000066950       0xe7 LINUX/depdom/ProcessingInstructionImpl.o
 *fill*         0x0000000000066a37        0x1 00
 .gcc_except_table
                0x0000000000066a38     0x115f LINUX/depdom/RangeImpl.o
 *fill*         0x0000000000067b97        0x1 00
 .gcc_except_table
                0x0000000000067b98       0x95 LINUX/depdom/TextImpl.o
 .gcc_except_table
                0x0000000000067c2d      0x3f0 LINUX/depdom/TreeWalkerImpl.o
 .gcc_except_table
                0x000000000006801d       0xca LINUX/depdom/XMLDeclImpl.o
                0x00000000000680e7                . = (ALIGN (0x200000) - ((0x200000 - .) & 0x1fffff))
                0x00000000002680e7                . = (0x200000 DATA_SEGMENT_ALIGN 0x1000)

.eh_frame
 *(.eh_frame)

.gcc_except_table
 *(.gcc_except_table .gcc_except_table.*)

.tdata
 *(.tdata .tdata.* .gnu.linkonce.td.*)

.tbss
 *(.tbss .tbss.* .gnu.linkonce.tb.*)
 *(.tcommon)

.preinit_array
 *(.preinit_array)

.init_array
 *(SORT(.init_array.*))
 *(.init_array)

.fini_array
 *(.fini_array)
 *(SORT(.fini_array.*))

.ctors          0x00000000002680e8       0x68
 *crtbegin.o(.ctors)
 *crtbegin?.o(.ctors)
 .ctors         0x00000000002680e8        0x8 /usr/lib/gcc/x86_64-redhat-linux/4.4.7/crtbeginS.o
 *(EXCLUDE_FILE(*crtend?.o *crtend.o) .ctors)
 .ctors         0x00000000002680f0        0x8 LINUX/depdom/CDATASectionImpl.o
 .ctors         0x00000000002680f8        0x8 LINUX/depdom/CommentImpl.o
 .ctors         0x0000000000268100        0x8 LINUX/depdom/DeepNodeListImpl.o
 .ctors         0x0000000000268108        0x8 LINUX/depdom/DocumentFragmentImpl.o
 .ctors         0x0000000000268110        0x8 LINUX/depdom/DocumentImpl.o
 .ctors         0x0000000000268118        0x8 LINUX/depdom/DOM_DOMImplementation.o
 .ctors         0x0000000000268120        0x8 LINUX/depdom/DOMString.o
 .ctors         0x0000000000268128        0x8 LINUX/depdom/ElementImpl.o
 .ctors         0x0000000000268130        0x8 LINUX/depdom/NodeImpl.o
 .ctors         0x0000000000268138        0x8 LINUX/depdom/TextImpl.o
 .ctors         0x0000000000268140        0x8 LINUX/depdom/XMLDeclImpl.o
 *(SORT(.ctors.*))
 *(.ctors)
 .ctors         0x0000000000268148        0x8 /usr/lib/gcc/x86_64-redhat-linux/4.4.7/crtendS.o

.dtors          0x0000000000268150       0x10
 *crtbegin.o(.dtors)
 *crtbegin?.o(.dtors)
 .dtors         0x0000000000268150        0x8 /usr/lib/gcc/x86_64-redhat-linux/4.4.7/crtbeginS.o
 *(EXCLUDE_FILE(*crtend?.o *crtend.o) .dtors)
 *(SORT(.dtors.*))
 *(.dtors)
 .dtors         0x0000000000268158        0x8 /usr/lib/gcc/x86_64-redhat-linux/4.4.7/crtendS.o
                0x0000000000268158                __DTOR_END__

.jcr            0x0000000000268160        0x8
 *(.jcr)
 .jcr           0x0000000000268160        0x0 /usr/lib/gcc/x86_64-redhat-linux/4.4.7/crtbeginS.o
 .jcr           0x0000000000268160        0x8 /usr/lib/gcc/x86_64-redhat-linux/4.4.7/crtendS.o

.data.rel.ro    0x0000000000268180     0x3b38
 *(.data.rel.ro.local* .gnu.linkonce.d.rel.ro.local.*)
 *(.data.rel.ro* .gnu.linkonce.d.rel.ro.*)
 .data.rel.ro   0x0000000000268180        0x8 /usr/lib/gcc/x86_64-redhat-linux/4.4.7/crtbeginS.o
                0x0000000000268180                __dso_handle
 *fill*         0x0000000000268188       0x18 00
 .data.rel.ro._ZTVN11xercesc_2_78AttrImplE
                0x00000000002681a0      0x1b0 LINUX/depdom/AttrImpl.o
                0x00000000002681a0                _ZTVN11xercesc_2_78AttrImplE
 *fill*         0x0000000000268350       0x10 00
 .data.rel.ro._ZTVN11xercesc_2_710XMLDeleterE
                0x0000000000268360       0x20 LINUX/depdom/AttrImpl.o
                0x0000000000268360                _ZTVN11xercesc_2_710XMLDeleterE
 .data.rel.ro._ZTIN11xercesc_2_710XMLDeleterE
                0x0000000000268380       0x10 LINUX/depdom/AttrImpl.o
                0x0000000000268380                _ZTIN11xercesc_2_710XMLDeleterE
 .data.rel.ro._ZTIN11xercesc_2_78AttrImplE
                0x0000000000268390       0x18 LINUX/depdom/AttrImpl.o
                0x0000000000268390                _ZTIN11xercesc_2_78AttrImplE
 *fill*         0x00000000002683a8        0x8 00
 .data.rel.ro._ZTIN11xercesc_2_730ArrayIndexOutOfBoundsExceptionE
                0x00000000002683b0       0x18 LINUX/depdom/AttrImpl.o
                0x00000000002683b0                _ZTIN11xercesc_2_730ArrayIndexOutOfBoundsExceptionE
 *fill*         0x00000000002683c8       0x18 00
 .data.rel.ro._ZTVN11xercesc_2_730ArrayIndexOutOfBoundsExceptionE
                0x00000000002683e0       0x30 LINUX/depdom/AttrImpl.o
                0x00000000002683e0                _ZTVN11xercesc_2_730ArrayIndexOutOfBoundsExceptionE
 *fill*         0x0000000000268410       0x10 00
 .data.rel.ro._ZTVN11xercesc_2_711AttrMapImplE
                0x0000000000268420       0xb0 LINUX/depdom/AttrMapImpl.o
                0x0000000000268420                _ZTVN11xercesc_2_711AttrMapImplE
 .data.rel.ro._ZTIN11xercesc_2_711AttrMapImplE
                0x00000000002684d0       0x18 LINUX/depdom/AttrMapImpl.o
                0x00000000002684d0                _ZTIN11xercesc_2_711AttrMapImplE
 *fill*         0x00000000002684e8       0x18 00
 .data.rel.ro._ZTVN11xercesc_2_710AttrNSImplE
                0x0000000000268500      0x1b0 LINUX/depdom/AttrNSImpl.o
                0x0000000000268500                _ZTVN11xercesc_2_710AttrNSImplE
 .data.rel.ro._ZTIN11xercesc_2_710AttrNSImplE
                0x00000000002686b0       0x18 LINUX/depdom/AttrNSImpl.o
                0x00000000002686b0                _ZTIN11xercesc_2_710AttrNSImplE
 *fill*         0x00000000002686c8       0x18 00
 .data.rel.ro._ZTVN11xercesc_2_716CDATASectionImplE
                0x00000000002686e0      0x1e0 LINUX/depdom/CDATASectionImpl.o
                0x00000000002686e0                _ZTVN11xercesc_2_716CDATASectionImplE
 .data.rel.ro._ZTIN11xercesc_2_716CDATASectionImplE
                0x00000000002688c0       0x18 LINUX/depdom/CDATASectionImpl.o
                0x00000000002688c0                _ZTIN11xercesc_2_716CDATASectionImplE
 *fill*         0x00000000002688d8        0x8 00
 .data.rel.ro._ZTVN11xercesc_2_717CharacterDataImplE
                0x00000000002688e0      0x1c8 LINUX/depdom/CharacterDataImpl.o
                0x00000000002688e0                _ZTVN11xercesc_2_717CharacterDataImplE
 *fill*         0x0000000000268aa8        0x8 00
 .data.rel.ro._ZTIN11xercesc_2_717CharacterDataImplE
                0x0000000000268ab0       0x18 LINUX/depdom/CharacterDataImpl.o
                0x0000000000268ab0                _ZTIN11xercesc_2_717CharacterDataImplE
 *fill*         0x0000000000268ac8       0x18 00
 .data.rel.ro._ZTVN11xercesc_2_79ChildNodeE
                0x0000000000268ae0      0x188 LINUX/depdom/ChildNode.o
                0x0000000000268ae0                _ZTVN11xercesc_2_79ChildNodeE
 *fill*         0x0000000000268c68        0x8 00
 .data.rel.ro._ZTIN11xercesc_2_79ChildNodeE
                0x0000000000268c70       0x18 LINUX/depdom/ChildNode.o
                0x0000000000268c70                _ZTIN11xercesc_2_79ChildNodeE
 *fill*         0x0000000000268c88       0x18 00
 .data.rel.ro._ZTVN11xercesc_2_711CommentImplE
                0x0000000000268ca0      0x1c8 LINUX/depdom/CommentImpl.o
                0x0000000000268ca0                _ZTVN11xercesc_2_711CommentImplE
 *fill*         0x0000000000268e68        0x8 00
 .data.rel.ro._ZTIN11xercesc_2_711CommentImplE
                0x0000000000268e70       0x18 LINUX/depdom/CommentImpl.o
                0x0000000000268e70                _ZTIN11xercesc_2_711CommentImplE
 *fill*         0x0000000000268e88       0x18 00
 .data.rel.ro._ZTVN11xercesc_2_716DeepNodeListImplE
                0x0000000000268ea0       0x48 LINUX/depdom/DeepNodeListImpl.o
                0x0000000000268ea0                _ZTVN11xercesc_2_716DeepNodeListImplE
 *fill*         0x0000000000268ee8        0x8 00
 .data.rel.ro._ZTIN11xercesc_2_716DeepNodeListImplE
                0x0000000000268ef0       0x18 LINUX/depdom/DeepNodeListImpl.o
                0x0000000000268ef0                _ZTIN11xercesc_2_716DeepNodeListImplE
 *fill*         0x0000000000268f08       0x18 00
 .data.rel.ro._ZTVN11xercesc_2_720DocumentFragmentImplE
                0x0000000000268f20      0x188 LINUX/depdom/DocumentFragmentImpl.o
                0x0000000000268f20                _ZTVN11xercesc_2_720DocumentFragmentImplE
 *fill*         0x00000000002690a8        0x8 00
 .data.rel.ro._ZTIN11xercesc_2_720DocumentFragmentImplE
                0x00000000002690b0       0x18 LINUX/depdom/DocumentFragmentImpl.o
                0x00000000002690b0                _ZTIN11xercesc_2_720DocumentFragmentImplE
 *fill*         0x00000000002690c8       0x18 00
 .data.rel.ro._ZTVN11xercesc_2_712DocumentImplE
                0x00000000002690e0      0x260 LINUX/depdom/DocumentImpl.o
                0x00000000002690e0                _ZTVN11xercesc_2_712DocumentImplE
 .data.rel.ro._ZTIN11xercesc_2_712DocumentImplE
                0x0000000000269340       0x18 LINUX/depdom/DocumentImpl.o
                0x0000000000269340                _ZTIN11xercesc_2_712DocumentImplE
 *fill*         0x0000000000269358        0x8 00
 .data.rel.ro._ZTIN11xercesc_2_724IllegalArgumentExceptionE
                0x0000000000269360       0x18 LINUX/depdom/DocumentImpl.o
                0x0000000000269360                _ZTIN11xercesc_2_724IllegalArgumentExceptionE
 *fill*         0x0000000000269378        0x8 00
 .data.rel.ro._ZTVN11xercesc_2_724IllegalArgumentExceptionE
                0x0000000000269380       0x30 LINUX/depdom/DocumentImpl.o
                0x0000000000269380                _ZTVN11xercesc_2_724IllegalArgumentExceptionE
 .data.rel.ro._ZTIN11xercesc_2_722NoSuchElementExceptionE
                0x00000000002693b0       0x18 LINUX/depdom/DocumentImpl.o
                0x00000000002693b0                _ZTIN11xercesc_2_722NoSuchElementExceptionE
 *fill*         0x00000000002693c8       0x18 00
 .data.rel.ro._ZTVN11xercesc_2_722NoSuchElementExceptionE
                0x00000000002693e0       0x30 LINUX/depdom/DocumentImpl.o
                0x00000000002693e0                _ZTVN11xercesc_2_722NoSuchElementExceptionE
 *fill*         0x0000000000269410       0x10 00
 .data.rel.ro._ZTVN11xercesc_2_711RefVectorOfINS_9RangeImplEEE
                0x0000000000269420       0x48 LINUX/depdom/DocumentImpl.o
                0x0000000000269420                _ZTVN11xercesc_2_711RefVectorOfINS_9RangeImplEEE
 *fill*         0x0000000000269468        0x8 00
 .data.rel.ro._ZTIN11xercesc_2_711RefVectorOfINS_9RangeImplEEE
                0x0000000000269470       0x18 LINUX/depdom/DocumentImpl.o
                0x0000000000269470                _ZTIN11xercesc_2_711RefVectorOfINS_9RangeImplEEE
 *fill*         0x0000000000269488        0x8 00
 .data.rel.ro._ZTIN11xercesc_2_715BaseRefVectorOfINS_9RangeImplEEE
                0x0000000000269490       0x18 LINUX/depdom/DocumentImpl.o
                0x0000000000269490                _ZTIN11xercesc_2_715BaseRefVectorOfINS_9RangeImplEEE
 *fill*         0x00000000002694a8        0x8 00
 .data.rel.ro._ZTIN11xercesc_2_77XMemoryE
                0x00000000002694b0       0x10 LINUX/depdom/DocumentImpl.o
                0x00000000002694b0                _ZTIN11xercesc_2_77XMemoryE
 .data.rel.ro._ZTVN11xercesc_2_715BaseRefVectorOfINS_9RangeImplEEE
                0x00000000002694c0       0x48 LINUX/depdom/DocumentImpl.o
                0x00000000002694c0                _ZTVN11xercesc_2_715BaseRefVectorOfINS_9RangeImplEEE
 *fill*         0x0000000000269508       0x18 00
 .data.rel.ro._ZTVN11xercesc_2_711RefVectorOfINS_14TreeWalkerImplEEE
                0x0000000000269520       0x48 LINUX/depdom/DocumentImpl.o
                0x0000000000269520                _ZTVN11xercesc_2_711RefVectorOfINS_14TreeWalkerImplEEE
 *fill*         0x0000000000269568        0x8 00
 .data.rel.ro._ZTIN11xercesc_2_711RefVectorOfINS_14TreeWalkerImplEEE
                0x0000000000269570       0x18 LINUX/depdom/DocumentImpl.o
                0x0000000000269570                _ZTIN11xercesc_2_711RefVectorOfINS_14TreeWalkerImplEEE
 *fill*         0x0000000000269588        0x8 00
 .data.rel.ro._ZTIN11xercesc_2_715BaseRefVectorOfINS_14TreeWalkerImplEEE
                0x0000000000269590       0x18 LINUX/depdom/DocumentImpl.o
                0x0000000000269590                _ZTIN11xercesc_2_715BaseRefVectorOfINS_14TreeWalkerImplEEE
 *fill*         0x00000000002695a8       0x18 00
 .data.rel.ro._ZTVN11xercesc_2_715BaseRefVectorOfINS_14TreeWalkerImplEEE
                0x00000000002695c0       0x48 LINUX/depdom/DocumentImpl.o
                0x00000000002695c0                _ZTVN11xercesc_2_715BaseRefVectorOfINS_14TreeWalkerImplEEE
 *fill*         0x0000000000269608       0x18 00
 .data.rel.ro._ZTVN11xercesc_2_711RefVectorOfINS_16NodeIteratorImplEEE
                0x0000000000269620       0x48 LINUX/depdom/DocumentImpl.o
                0x0000000000269620                _ZTVN11xercesc_2_711RefVectorOfINS_16NodeIteratorImplEEE
 *fill*         0x0000000000269668        0x8 00
 .data.rel.ro._ZTIN11xercesc_2_711RefVectorOfINS_16NodeIteratorImplEEE
                0x0000000000269670       0x18 LINUX/depdom/DocumentImpl.o
                0x0000000000269670                _ZTIN11xercesc_2_711RefVectorOfINS_16NodeIteratorImplEEE
 *fill*         0x0000000000269688        0x8 00
 .data.rel.ro._ZTIN11xercesc_2_715BaseRefVectorOfINS_16NodeIteratorImplEEE
                0x0000000000269690       0x18 LINUX/depdom/DocumentImpl.o
                0x0000000000269690                _ZTIN11xercesc_2_715BaseRefVectorOfINS_16NodeIteratorImplEEE
 *fill*         0x00000000002696a8       0x18 00
 .data.rel.ro._ZTVN11xercesc_2_715BaseRefVectorOfINS_16NodeIteratorImplEEE
                0x00000000002696c0       0x48 LINUX/depdom/DocumentImpl.o
                0x00000000002696c0                _ZTVN11xercesc_2_715BaseRefVectorOfINS_16NodeIteratorImplEEE
 *fill*         0x0000000000269708       0x18 00
 .data.rel.ro._ZTVN11xercesc_2_716DocumentTypeImplE
                0x0000000000269720      0x1d8 LINUX/depdom/DocumentTypeImpl.o
                0x0000000000269720                _ZTVN11xercesc_2_716DocumentTypeImplE
 *fill*         0x00000000002698f8        0x8 00
 .data.rel.ro._ZTIN11xercesc_2_716DocumentTypeImplE
                0x0000000000269900       0x18 LINUX/depdom/DocumentTypeImpl.o
                0x0000000000269900                _ZTIN11xercesc_2_716DocumentTypeImplE
 *fill*         0x0000000000269918        0x8 00
 .data.rel.ro._ZTVN11xercesc_2_716DOM_DOMExceptionE
                0x0000000000269920       0x20 LINUX/depdom/DOM_DOMException.o
                0x0000000000269920                _ZTVN11xercesc_2_716DOM_DOMExceptionE
 .data.rel.ro._ZTIN11xercesc_2_716DOM_DOMExceptionE
                0x0000000000269940       0x10 LINUX/depdom/DOM_DOMException.o
                0x0000000000269940                _ZTIN11xercesc_2_716DOM_DOMExceptionE
 *fill*         0x0000000000269950       0x10 00
 .data.rel.ro._ZTVN11xercesc_2_714DOM_NodeFilterE
                0x0000000000269960       0x28 LINUX/depdom/DOM_NodeFilter.o
                0x0000000000269960                _ZTVN11xercesc_2_714DOM_NodeFilterE
 *fill*         0x0000000000269988        0x8 00
 .data.rel.ro._ZTIN11xercesc_2_714DOM_NodeFilterE
                0x0000000000269990       0x10 LINUX/depdom/DOM_NodeFilter.o
                0x0000000000269990                _ZTIN11xercesc_2_714DOM_NodeFilterE
 .data.rel.ro._ZTVN11xercesc_2_79DOMParserE
                0x00000000002699a0      0x268 LINUX/depdom/DOMParser.o
                0x00000000002699a0                _ZTVN11xercesc_2_79DOMParserE
 *fill*         0x0000000000269c08       0x18 00
 .data.rel.ro._ZTVN11xercesc_2_715ContentSpecNodeE
                0x0000000000269c20       0x38 LINUX/depdom/DOMParser.o
                0x0000000000269c20                _ZTVN11xercesc_2_715ContentSpecNodeE
 *fill*         0x0000000000269c58        0x8 00
 .data.rel.ro._ZTVN11xercesc_2_713XMLAttDefListE
                0x0000000000269c60       0x90 LINUX/depdom/DOMParser.o
                0x0000000000269c60                _ZTVN11xercesc_2_713XMLAttDefListE
 *fill*         0x0000000000269cf0       0x10 00
 .data.rel.ro._ZTVN11xercesc_2_713DTDEntityDeclE
                0x0000000000269d00       0x50 LINUX/depdom/DOMParser.o
                0x0000000000269d00                _ZTVN11xercesc_2_713DTDEntityDeclE
 *fill*         0x0000000000269d50       0x10 00
 .data.rel.ro._ZTVN11xercesc_2_710XMLRefInfoE
                0x0000000000269d60       0x38 LINUX/depdom/DOMParser.o
                0x0000000000269d60                _ZTVN11xercesc_2_710XMLRefInfoE
 *fill*         0x0000000000269d98        0x8 00
 .data.rel.ro._ZTIN11xercesc_2_715ContentSpecNodeE
                0x0000000000269da0       0x38 LINUX/depdom/DOMParser.o
                0x0000000000269da0                _ZTIN11xercesc_2_715ContentSpecNodeE
 *fill*         0x0000000000269dd8        0x8 00
 .data.rel.ro._ZTIN11xercesc_2_79DOMParserE
                0x0000000000269de0       0x68 LINUX/depdom/DOMParser.o
                0x0000000000269de0                _ZTIN11xercesc_2_79DOMParserE
 *fill*         0x0000000000269e48       0x18 00
 .data.rel.ro._ZTIN11xercesc_2_713XMLAttDefListE
                0x0000000000269e60       0x38 LINUX/depdom/DOMParser.o
                0x0000000000269e60                _ZTIN11xercesc_2_713XMLAttDefListE
 *fill*         0x0000000000269e98        0x8 00
 .data.rel.ro._ZTIN11xercesc_2_713DTDEntityDeclE
                0x0000000000269ea0       0x18 LINUX/depdom/DOMParser.o
                0x0000000000269ea0                _ZTIN11xercesc_2_713DTDEntityDeclE
 *fill*         0x0000000000269eb8        0x8 00
 .data.rel.ro._ZTIN11xercesc_2_710XMLRefInfoE
                0x0000000000269ec0       0x38 LINUX/depdom/DOMParser.o
                0x0000000000269ec0                _ZTIN11xercesc_2_710XMLRefInfoE
 *fill*         0x0000000000269ef8        0x8 00
 .data.rel.ro._ZTIN11xercesc_2_713XSerializableE
                0x0000000000269f00       0x10 LINUX/depdom/DOMParser.o
                0x0000000000269f00                _ZTIN11xercesc_2_713XSerializableE
 .data.rel.ro._ZTIN11xercesc_2_718XMLDocumentHandlerE
                0x0000000000269f10       0x10 LINUX/depdom/DOMParser.o
                0x0000000000269f10                _ZTIN11xercesc_2_718XMLDocumentHandlerE
 .data.rel.ro._ZTIN11xercesc_2_716XMLErrorReporterE
                0x0000000000269f20       0x10 LINUX/depdom/DOMParser.o
                0x0000000000269f20                _ZTIN11xercesc_2_716XMLErrorReporterE
 .data.rel.ro._ZTIN11xercesc_2_716XMLEntityHandlerE
                0x0000000000269f30       0x10 LINUX/depdom/DOMParser.o
                0x0000000000269f30                _ZTIN11xercesc_2_716XMLEntityHandlerE
 .data.rel.ro._ZTIN11xercesc_2_714DocTypeHandlerE
                0x0000000000269f40       0x10 LINUX/depdom/DOMParser.o
                0x0000000000269f40                _ZTIN11xercesc_2_714DocTypeHandlerE
 *fill*         0x0000000000269f50       0x10 00
 .data.rel.ro._ZTVN11xercesc_2_713XSerializableE
                0x0000000000269f60       0x38 LINUX/depdom/DOMParser.o
                0x0000000000269f60                _ZTVN11xercesc_2_713XSerializableE
 *fill*         0x0000000000269f98        0x8 00
 .data.rel.ro._ZTIN11xercesc_2_711IOExceptionE
                0x0000000000269fa0       0x18 LINUX/depdom/DOMParser.o
                0x0000000000269fa0                _ZTIN11xercesc_2_711IOExceptionE
 *fill*         0x0000000000269fb8        0x8 00
 .data.rel.ro._ZTVN11xercesc_2_711IOExceptionE
                0x0000000000269fc0       0x30 LINUX/depdom/DOMParser.o
                0x0000000000269fc0                _ZTVN11xercesc_2_711IOExceptionE
 .data.rel.ro._ZTIN11xercesc_2_719EmptyStackExceptionE
                0x0000000000269ff0       0x18 LINUX/depdom/DOMParser.o
                0x0000000000269ff0                _ZTIN11xercesc_2_719EmptyStackExceptionE
 *fill*         0x000000000026a008       0x18 00
 .data.rel.ro._ZTVN11xercesc_2_719EmptyStackExceptionE
                0x000000000026a020       0x30 LINUX/depdom/DOMParser.o
                0x000000000026a020                _ZTVN11xercesc_2_719EmptyStackExceptionE
 *fill*         0x000000000026a050       0x10 00
 .data.rel.ro._ZTVN11xercesc_2_714DocTypeHandlerE
                0x000000000026a060       0xa0 LINUX/depdom/DOMParser.o
                0x000000000026a060                _ZTVN11xercesc_2_714DocTypeHandlerE
 .data.rel.ro._ZTVN11xercesc_2_716XMLEntityHandlerE
                0x000000000026a100       0x50 LINUX/depdom/DOMParser.o
                0x000000000026a100                _ZTVN11xercesc_2_716XMLEntityHandlerE
 *fill*         0x000000000026a150       0x10 00
 .data.rel.ro._ZTVN11xercesc_2_716XMLErrorReporterE
                0x000000000026a160       0x30 LINUX/depdom/DOMParser.o
                0x000000000026a160                _ZTVN11xercesc_2_716XMLErrorReporterE
 *fill*         0x000000000026a190       0x10 00
 .data.rel.ro._ZTVN11xercesc_2_718XMLDocumentHandlerE
                0x000000000026a1a0       0x88 LINUX/depdom/DOMParser.o
                0x000000000026a1a0                _ZTVN11xercesc_2_718XMLDocumentHandlerE
 *fill*         0x000000000026a228        0x8 00
 .data.rel.ro._ZTIN11xercesc_2_720OutOfMemoryExceptionE
                0x000000000026a230       0x18 LINUX/depdom/DOMParser.o
                0x000000000026a230                _ZTIN11xercesc_2_720OutOfMemoryExceptionE
 *fill*         0x000000000026a248       0x18 00
 .data.rel.ro._ZTVN11xercesc_2_718DOM_RangeExceptionE
                0x000000000026a260       0x20 LINUX/depdom/DOM_RangeException.o
                0x000000000026a260                _ZTVN11xercesc_2_718DOM_RangeExceptionE
 .data.rel.ro._ZTIN11xercesc_2_718DOM_RangeExceptionE
                0x000000000026a280       0x18 LINUX/depdom/DOM_RangeException.o
                0x000000000026a280                _ZTIN11xercesc_2_718DOM_RangeExceptionE
 *fill*         0x000000000026a298        0x8 00
 .data.rel.ro._ZTVN11xercesc_2_721ElementDefinitionImplE
                0x000000000026a2a0      0x188 LINUX/depdom/ElementDefinitionImpl.o
                0x000000000026a2a0                _ZTVN11xercesc_2_721ElementDefinitionImplE
 *fill*         0x000000000026a428        0x8 00
 .data.rel.ro._ZTIN11xercesc_2_721ElementDefinitionImplE
                0x000000000026a430       0x18 LINUX/depdom/ElementDefinitionImpl.o
                0x000000000026a430                _ZTIN11xercesc_2_721ElementDefinitionImplE
 *fill*         0x000000000026a448       0x18 00
 .data.rel.ro._ZTVN11xercesc_2_711ElementImplE
                0x000000000026a460      0x288 LINUX/depdom/ElementImpl.o
                0x000000000026a460                _ZTVN11xercesc_2_711ElementImplE
 *fill*         0x000000000026a6e8        0x8 00
 .data.rel.ro._ZTIN11xercesc_2_711ElementImplE
                0x000000000026a6f0       0x18 LINUX/depdom/ElementImpl.o
                0x000000000026a6f0                _ZTIN11xercesc_2_711ElementImplE
 *fill*         0x000000000026a708       0x18 00
 .data.rel.ro._ZTVN11xercesc_2_713ElementNSImplE
                0x000000000026a720      0x288 LINUX/depdom/ElementNSImpl.o
                0x000000000026a720                _ZTVN11xercesc_2_713ElementNSImplE
 *fill*         0x000000000026a9a8        0x8 00
 .data.rel.ro._ZTIN11xercesc_2_713ElementNSImplE
                0x000000000026a9b0       0x18 LINUX/depdom/ElementNSImpl.o
                0x000000000026a9b0                _ZTIN11xercesc_2_713ElementNSImplE
 *fill*         0x000000000026a9c8       0x18 00
 .data.rel.ro._ZTVN11xercesc_2_710EntityImplE
                0x000000000026a9e0      0x1b8 LINUX/depdom/EntityImpl.o
                0x000000000026a9e0                _ZTVN11xercesc_2_710EntityImplE
 *fill*         0x000000000026ab98        0x8 00
 .data.rel.ro._ZTIN11xercesc_2_710EntityImplE
                0x000000000026aba0       0x18 LINUX/depdom/EntityImpl.o
                0x000000000026aba0                _ZTIN11xercesc_2_710EntityImplE
 *fill*         0x000000000026abb8        0x8 00
 .data.rel.ro._ZTVN11xercesc_2_719EntityReferenceImplE
                0x000000000026abc0      0x188 LINUX/depdom/EntityReferenceImpl.o
                0x000000000026abc0                _ZTVN11xercesc_2_719EntityReferenceImplE
 *fill*         0x000000000026ad48        0x8 00
 .data.rel.ro._ZTIN11xercesc_2_719EntityReferenceImplE
                0x000000000026ad50       0x18 LINUX/depdom/EntityReferenceImpl.o
                0x000000000026ad50                _ZTIN11xercesc_2_719EntityReferenceImplE
 *fill*         0x000000000026ad68       0x18 00
 .data.rel.ro._ZTVN11xercesc_2_716NamedNodeMapImplE
                0x000000000026ad80       0x98 LINUX/depdom/NamedNodeMapImpl.o
                0x000000000026ad80                _ZTVN11xercesc_2_716NamedNodeMapImplE
 *fill*         0x000000000026ae18        0x8 00
 .data.rel.ro._ZTIN11xercesc_2_716NamedNodeMapImplE
                0x000000000026ae20       0x18 LINUX/depdom/NamedNodeMapImpl.o
                0x000000000026ae20                _ZTIN11xercesc_2_716NamedNodeMapImplE
 *fill*         0x000000000026ae38        0x8 00
 .data.rel.ro._ZTVN11xercesc_2_79NodeIDMapE
                0x000000000026ae40       0x20 LINUX/depdom/NodeIDMap.o
                0x000000000026ae40                _ZTVN11xercesc_2_79NodeIDMapE
 .data.rel.ro._ZTIN11xercesc_2_79NodeIDMapE
                0x000000000026ae60       0x18 LINUX/depdom/NodeIDMap.o
                0x000000000026ae60                _ZTIN11xercesc_2_79NodeIDMapE
 *fill*         0x000000000026ae78        0x8 00
 .data.rel.ro._ZTIN11xercesc_2_716RuntimeExceptionE
                0x000000000026ae80       0x18 LINUX/depdom/NodeIDMap.o
                0x000000000026ae80                _ZTIN11xercesc_2_716RuntimeExceptionE
 *fill*         0x000000000026ae98        0x8 00
 .data.rel.ro._ZTVN11xercesc_2_716RuntimeExceptionE
                0x000000000026aea0       0x30 LINUX/depdom/NodeIDMap.o
                0x000000000026aea0                _ZTVN11xercesc_2_716RuntimeExceptionE
 *fill*         0x000000000026aed0       0x10 00
 .data.rel.ro._ZTVN11xercesc_2_78NodeImplE
                0x000000000026aee0      0x188 LINUX/depdom/NodeImpl.o
                0x000000000026aee0                _ZTVN11xercesc_2_78NodeImplE
 *fill*         0x000000000026b068        0x8 00
 .data.rel.ro._ZTIN11xercesc_2_78NodeImplE
                0x000000000026b070       0x18 LINUX/depdom/NodeImpl.o
                0x000000000026b070                _ZTIN11xercesc_2_78NodeImplE
 *fill*         0x000000000026b088       0x18 00
 .data.rel.ro._ZTVN11xercesc_2_716NodeIteratorImplE
                0x000000000026b0a0       0x30 LINUX/depdom/NodeIteratorImpl.o
                0x000000000026b0a0                _ZTVN11xercesc_2_716NodeIteratorImplE
 .data.rel.ro._ZTIN11xercesc_2_716NodeIteratorImplE
                0x000000000026b0d0       0x18 LINUX/depdom/NodeIteratorImpl.o
                0x000000000026b0d0                _ZTIN11xercesc_2_716NodeIteratorImplE
 *fill*         0x000000000026b0e8       0x18 00
 .data.rel.ro._ZTVN11xercesc_2_712NodeListImplE
                0x000000000026b100       0x40 LINUX/depdom/NodeListImpl.o
                0x000000000026b100                _ZTVN11xercesc_2_712NodeListImplE
 .data.rel.ro._ZTIN11xercesc_2_712NodeListImplE
                0x000000000026b140       0x18 LINUX/depdom/NodeListImpl.o
                0x000000000026b140                _ZTIN11xercesc_2_712NodeListImplE
 *fill*         0x000000000026b158        0x8 00
 .data.rel.ro._ZTVN11xercesc_2_712NotationImplE
                0x000000000026b160      0x1a8 LINUX/depdom/NotationImpl.o
                0x000000000026b160                _ZTVN11xercesc_2_712NotationImplE
 *fill*         0x000000000026b308        0x8 00
 .data.rel.ro._ZTIN11xercesc_2_712NotationImplE
                0x000000000026b310       0x18 LINUX/depdom/NotationImpl.o
                0x000000000026b310                _ZTIN11xercesc_2_712NotationImplE
 *fill*         0x000000000026b328       0x18 00
 .data.rel.ro._ZTVN11xercesc_2_710ParentNodeE
                0x000000000026b340      0x188 LINUX/depdom/ParentNode.o
                0x000000000026b340                _ZTVN11xercesc_2_710ParentNodeE
 *fill*         0x000000000026b4c8        0x8 00
 .data.rel.ro._ZTIN11xercesc_2_710ParentNodeE
                0x000000000026b4d0       0x18 LINUX/depdom/ParentNode.o
                0x000000000026b4d0                _ZTIN11xercesc_2_710ParentNodeE
 *fill*         0x000000000026b4e8       0x18 00
 .data.rel.ro._ZTVN11xercesc_2_725ProcessingInstructionImplE
                0x000000000026b500      0x1a0 LINUX/depdom/ProcessingInstructionImpl.o
                0x000000000026b500                _ZTVN11xercesc_2_725ProcessingInstructionImplE
 .data.rel.ro._ZTIN11xercesc_2_725ProcessingInstructionImplE
                0x000000000026b6a0       0x18 LINUX/depdom/ProcessingInstructionImpl.o
                0x000000000026b6a0                _ZTIN11xercesc_2_725ProcessingInstructionImplE
 *fill*         0x000000000026b6b8        0x8 00
 .data.rel.ro._ZTVN11xercesc_2_79RangeImplE
                0x000000000026b6c0       0x30 LINUX/depdom/RangeImpl.o
                0x000000000026b6c0                _ZTVN11xercesc_2_79RangeImplE
 .data.rel.ro._ZTIN11xercesc_2_79RangeImplE
                0x000000000026b6f0       0x18 LINUX/depdom/RangeImpl.o
                0x000000000026b6f0                _ZTIN11xercesc_2_79RangeImplE
 *fill*         0x000000000026b708       0x18 00
 .data.rel.ro._ZTVN11xercesc_2_711RefVectorOfINS_8NodeImplEEE
                0x000000000026b720       0x48 LINUX/depdom/RangeImpl.o
                0x000000000026b720                _ZTVN11xercesc_2_711RefVectorOfINS_8NodeImplEEE
 *fill*         0x000000000026b768        0x8 00
 .data.rel.ro._ZTIN11xercesc_2_711RefVectorOfINS_8NodeImplEEE
                0x000000000026b770       0x18 LINUX/depdom/RangeImpl.o
                0x000000000026b770                _ZTIN11xercesc_2_711RefVectorOfINS_8NodeImplEEE
 *fill*         0x000000000026b788        0x8 00
 .data.rel.ro._ZTIN11xercesc_2_715BaseRefVectorOfINS_8NodeImplEEE
                0x000000000026b790       0x18 LINUX/depdom/RangeImpl.o
                0x000000000026b790                _ZTIN11xercesc_2_715BaseRefVectorOfINS_8NodeImplEEE
 *fill*         0x000000000026b7a8       0x18 00
 .data.rel.ro._ZTVN11xercesc_2_715BaseRefVectorOfINS_8NodeImplEEE
                0x000000000026b7c0       0x48 LINUX/depdom/RangeImpl.o
                0x000000000026b7c0                _ZTVN11xercesc_2_715BaseRefVectorOfINS_8NodeImplEEE
 *fill*         0x000000000026b808       0x18 00
 .data.rel.ro._ZTVN11xercesc_2_714RefCountedImplE
                0x000000000026b820       0x30 LINUX/depdom/RefCountedImpl.o
                0x000000000026b820                _ZTVN11xercesc_2_714RefCountedImplE
 .data.rel.ro._ZTIN11xercesc_2_714RefCountedImplE
                0x000000000026b850       0x18 LINUX/depdom/RefCountedImpl.o
                0x000000000026b850                _ZTIN11xercesc_2_714RefCountedImplE
 *fill*         0x000000000026b868       0x18 00
 .data.rel.ro._ZTVN11xercesc_2_78TextImplE
                0x000000000026b880      0x1e0 LINUX/depdom/TextImpl.o
                0x000000000026b880                _ZTVN11xercesc_2_78TextImplE
 .data.rel.ro._ZTIN11xercesc_2_78TextImplE
                0x000000000026ba60       0x18 LINUX/depdom/TextImpl.o
                0x000000000026ba60                _ZTIN11xercesc_2_78TextImplE
 *fill*         0x000000000026ba78        0x8 00
 .data.rel.ro._ZTVN11xercesc_2_714TreeWalkerImplE
                0x000000000026ba80       0x30 LINUX/depdom/TreeWalkerImpl.o
                0x000000000026ba80                _ZTVN11xercesc_2_714TreeWalkerImplE
 .data.rel.ro._ZTIN11xercesc_2_714TreeWalkerImplE
                0x000000000026bab0       0x18 LINUX/depdom/TreeWalkerImpl.o
                0x000000000026bab0                _ZTIN11xercesc_2_714TreeWalkerImplE
 *fill*         0x000000000026bac8       0x18 00
 .data.rel.ro._ZTVN11xercesc_2_711XMLDeclImplE
                0x000000000026bae0      0x1b8 LINUX/depdom/XMLDeclImpl.o
                0x000000000026bae0                _ZTVN11xercesc_2_711XMLDeclImplE
 *fill*         0x000000000026bc98        0x8 00
 .data.rel.ro._ZTIN11xercesc_2_711XMLDeclImplE
                0x000000000026bca0       0x18 LINUX/depdom/XMLDeclImpl.o
                0x000000000026bca0                _ZTIN11xercesc_2_711XMLDeclImplE

.dynamic        0x000000000026bcb8      0x1e0
 *(.dynamic)
 .dynamic       0x000000000026bcb8      0x1e0 /usr/lib/gcc/x86_64-redhat-linux/4.4.7/../../../../lib64/crti.o
                0x000000000026bcb8                _DYNAMIC

.got            0x000000000026be98      0x448
 *(.got)
 .got           0x000000000026be98      0x448 /usr/lib/gcc/x86_64-redhat-linux/4.4.7/../../../../lib64/crti.o
 *(.igot)
                0x000000000026c2e0                . = (. DATA_SEGMENT_RELRO_END 0x18)

.got.plt        0x000000000026c2e0     0x1058
 *(.got.plt)
 .got.plt       0x000000000026c2e0     0x1058 /usr/lib/gcc/x86_64-redhat-linux/4.4.7/../../../../lib64/crti.o
                0x000000000026c2e0                _GLOBAL_OFFSET_TABLE_
 *(.igot.plt)

.data           0x000000000026d338       0x10
 *(.data .data.* .gnu.linkonce.d.*)
 .data          0x000000000026d338        0x0 /usr/lib/gcc/x86_64-redhat-linux/4.4.7/../../../../lib64/crti.o
 .data          0x000000000026d338        0x0 /usr/lib/gcc/x86_64-redhat-linux/4.4.7/crtbeginS.o
 .data          0x000000000026d338        0x0 LINUX/depdom/AttrImpl.o
 .data.DW.ref.__gxx_personality_v0
                0x000000000026d338        0x8 LINUX/depdom/AttrImpl.o
                0x000000000026d338                DW.ref.__gxx_personality_v0
 .data          0x000000000026d340        0x0 LINUX/depdom/AttrMapImpl.o
 .data          0x000000000026d340        0x0 LINUX/depdom/AttrNSImpl.o
 .data          0x000000000026d340        0x0 LINUX/depdom/CDATASectionImpl.o
 .data          0x000000000026d340        0x0 LINUX/depdom/CharacterDataImpl.o
 .data          0x000000000026d340        0x0 LINUX/depdom/ChildNode.o
 .data          0x000000000026d340        0x0 LINUX/depdom/CommentImpl.o
 .data          0x000000000026d340        0x0 LINUX/depdom/DeepNodeListImpl.o
 .data          0x000000000026d340        0x0 LINUX/depdom/DocumentFragmentImpl.o
 .data          0x000000000026d340        0x0 LINUX/depdom/DocumentImpl.o
 .data          0x000000000026d340        0x0 LINUX/depdom/DocumentTypeImpl.o
 .data          0x000000000026d340        0x0 LINUX/depdom/DOM_Attr.o
 .data          0x000000000026d340        0x0 LINUX/depdom/DOM_CDATASection.o
 .data          0x000000000026d340        0x0 LINUX/depdom/DOM_CharacterData.o
 .data          0x000000000026d340        0x0 LINUX/depdom/DOM_Comment.o
 .data          0x000000000026d340        0x0 LINUX/depdom/DOM_DocumentFragment.o
 .data          0x000000000026d340        0x0 LINUX/depdom/DOM_Document.o
 .data          0x000000000026d340        0x0 LINUX/depdom/DOM_DocumentType.o
 .data          0x000000000026d340        0x0 LINUX/depdom/DOM_DOMException.o
 .data          0x000000000026d340        0x0 LINUX/depdom/DOM_DOMImplementation.o
 .data          0x000000000026d340        0x0 LINUX/depdom/DOM_Element.o
 .data          0x000000000026d340        0x0 LINUX/depdom/DOM_Entity.o
 .data          0x000000000026d340        0x0 LINUX/depdom/DOM_EntityReference.o
 .data          0x000000000026d340        0x0 LINUX/depdom/DomMemDebug.o
 .data          0x000000000026d340        0x0 LINUX/depdom/DOM_NamedNodeMap.o
 .data          0x000000000026d340        0x0 LINUX/depdom/DOM_NodeFilter.o
 .data          0x000000000026d340        0x0 LINUX/depdom/DOM_NodeIterator.o
 .data          0x000000000026d340        0x0 LINUX/depdom/DOM_NodeList.o
 .data          0x000000000026d340        0x0 LINUX/depdom/DOM_Node.o
 .data          0x000000000026d340        0x0 LINUX/depdom/DOM_Notation.o
 .data          0x000000000026d340        0x0 LINUX/depdom/DOMParser.o
 .data.DW.ref._ZTIN11xercesc_2_720OutOfMemoryExceptionE
                0x000000000026d340        0x8 LINUX/depdom/DOMParser.o
                0x000000000026d340                DW.ref._ZTIN11xercesc_2_720OutOfMemoryExceptionE
 .data          0x000000000026d348        0x0 LINUX/depdom/DOM_ProcessingInstruction.o
 .data          0x000000000026d348        0x0 LINUX/depdom/DOM_RangeException.o
 .data          0x000000000026d348        0x0 LINUX/depdom/DOM_Range.o
 .data          0x000000000026d348        0x0 LINUX/depdom/DOMString.o
 .data          0x000000000026d348        0x0 LINUX/depdom/DOM_Text.o
 .data          0x000000000026d348        0x0 LINUX/depdom/DOM_TreeWalker.o
 .data          0x000000000026d348        0x0 LINUX/depdom/DOM_XMLDecl.o
 .data          0x000000000026d348        0x0 LINUX/depdom/DStringPool.o
 .data          0x000000000026d348        0x0 LINUX/depdom/ElementDefinitionImpl.o
 .data          0x000000000026d348        0x0 LINUX/depdom/ElementImpl.o
 .data          0x000000000026d348        0x0 LINUX/depdom/ElementNSImpl.o
 .data          0x000000000026d348        0x0 LINUX/depdom/EntityImpl.o
 .data          0x000000000026d348        0x0 LINUX/depdom/EntityReferenceImpl.o
 .data          0x000000000026d348        0x0 LINUX/depdom/NamedNodeMapImpl.o
 .data          0x000000000026d348        0x0 LINUX/depdom/NodeIDMap.o
 .data          0x000000000026d348        0x0 LINUX/depdom/NodeImpl.o
 .data          0x000000000026d348        0x0 LINUX/depdom/NodeIteratorImpl.o
 .data          0x000000000026d348        0x0 LINUX/depdom/NodeListImpl.o
 .data          0x000000000026d348        0x0 LINUX/depdom/NodeVector.o
 .data          0x000000000026d348        0x0 LINUX/depdom/NotationImpl.o
 .data          0x000000000026d348        0x0 LINUX/depdom/ParentNode.o
 .data          0x000000000026d348        0x0 LINUX/depdom/ProcessingInstructionImpl.o
 .data          0x000000000026d348        0x0 LINUX/depdom/RangeImpl.o
 .data          0x000000000026d348        0x0 LINUX/depdom/RefCountedImpl.o
 .data          0x000000000026d348        0x0 LINUX/depdom/TextImpl.o
 .data          0x000000000026d348        0x0 LINUX/depdom/TreeWalkerImpl.o
 .data          0x000000000026d348        0x0 LINUX/depdom/XMLDeclImpl.o
 .data          0x000000000026d348        0x0 /usr/lib/gcc/x86_64-redhat-linux/4.4.7/crtendS.o
 .data          0x000000000026d348        0x0 /usr/lib/gcc/x86_64-redhat-linux/4.4.7/../../../../lib64/crtn.o

.data1
 *(.data1)

.sharable_data  0x0000000000400000        0x0
                0x0000000000400000                PROVIDE (__sharable_data_start, .)
 *(.sharable_data .sharable_data.* .gnu.linkonce.shrd.*)
                0x0000000000400000                . = ALIGN ((. != 0x0)?0x200000:0x1)
                0x0000000000400000                PROVIDE (__sharable_data_end, .)
                0x0000000000400000                _edata = .
                0x0000000000400000                PROVIDE (edata, .)
                0x0000000000400000                __bss_start = .

.bss            0x000000000026d360      0x2b0
 *(.dynbss)
 .dynbss        0x0000000000000000        0x0 /usr/lib/gcc/x86_64-redhat-linux/4.4.7/../../../../lib64/crti.o
 *(.bss .bss.* .gnu.linkonce.b.*)
 .bss           0x000000000026d360        0x0 /usr/lib/gcc/x86_64-redhat-linux/4.4.7/../../../../lib64/crti.o
 .bss           0x000000000026d360       0x10 /usr/lib/gcc/x86_64-redhat-linux/4.4.7/crtbeginS.o
 .bss           0x000000000026d370        0x0 LINUX/depdom/AttrImpl.o
 .bss           0x000000000026d370        0x0 LINUX/depdom/AttrMapImpl.o
 .bss           0x000000000026d370        0x0 LINUX/depdom/AttrNSImpl.o
 .bss           0x000000000026d370       0x20 LINUX/depdom/CDATASectionImpl.o
 .bss           0x000000000026d390        0x0 LINUX/depdom/CharacterDataImpl.o
 .bss           0x000000000026d390        0x0 LINUX/depdom/ChildNode.o
 .bss           0x000000000026d390       0x20 LINUX/depdom/CommentImpl.o
 .bss           0x000000000026d3b0       0x20 LINUX/depdom/DeepNodeListImpl.o
 .bss           0x000000000026d3d0       0x20 LINUX/depdom/DocumentFragmentImpl.o
 *fill*         0x000000000026d3f0       0x10 00
 .bss           0x000000000026d400       0x58 LINUX/depdom/DocumentImpl.o
 .bss           0x000000000026d458        0x0 LINUX/depdom/DocumentTypeImpl.o
 .bss           0x000000000026d458        0x0 LINUX/depdom/DOM_Attr.o
 .bss           0x000000000026d458        0x0 LINUX/depdom/DOM_CDATASection.o
 .bss           0x000000000026d458        0x0 LINUX/depdom/DOM_CharacterData.o
 .bss           0x000000000026d458        0x0 LINUX/depdom/DOM_Comment.o
 .bss           0x000000000026d458        0x0 LINUX/depdom/DOM_DocumentFragment.o
 .bss           0x000000000026d458        0x0 LINUX/depdom/DOM_Document.o
 .bss           0x000000000026d458        0x0 LINUX/depdom/DOM_DocumentType.o
 .bss           0x000000000026d458        0x0 LINUX/depdom/DOM_DOMException.o
 *fill*         0x000000000026d458        0x8 00
 .bss           0x000000000026d460       0x78 LINUX/depdom/DOM_DOMImplementation.o
 .bss           0x000000000026d4d8        0x0 LINUX/depdom/DOM_Element.o
 .bss           0x000000000026d4d8        0x0 LINUX/depdom/DOM_Entity.o
 .bss           0x000000000026d4d8        0x0 LINUX/depdom/DOM_EntityReference.o
 .bss           0x000000000026d4d8        0x0 LINUX/depdom/DomMemDebug.o
 .bss           0x000000000026d4d8        0x0 LINUX/depdom/DOM_NamedNodeMap.o
 .bss           0x000000000026d4d8        0x0 LINUX/depdom/DOM_NodeFilter.o
 .bss           0x000000000026d4d8        0x0 LINUX/depdom/DOM_NodeIterator.o
 .bss           0x000000000026d4d8        0x0 LINUX/depdom/DOM_NodeList.o
 .bss           0x000000000026d4d8        0x0 LINUX/depdom/DOM_Node.o
 .bss           0x000000000026d4d8        0x0 LINUX/depdom/DOM_Notation.o
 .bss           0x000000000026d4d8        0x0 LINUX/depdom/DOMParser.o
 .bss           0x000000000026d4d8        0x0 LINUX/depdom/DOM_ProcessingInstruction.o
 .bss           0x000000000026d4d8        0x0 LINUX/depdom/DOM_RangeException.o
 .bss           0x000000000026d4d8        0x0 LINUX/depdom/DOM_Range.o
 *fill*         0x000000000026d4d8        0x8 00
 .bss           0x000000000026d4e0       0x68 LINUX/depdom/DOMString.o
                0x000000000026d4e0                _ZN11xercesc_2_79DOMString20gLiveStringDataCountE
                0x000000000026d4e4                _ZN11xercesc_2_79DOMString21gTotalStringDataCountE
                0x000000000026d4e8                _ZN11xercesc_2_79DOMString22gLiveStringHandleCountE
                0x000000000026d4ec                _ZN11xercesc_2_79DOMString23gTotalStringHandleCountE
                0x000000000026d4f0                _ZN11xercesc_2_715DOMStringHandle11freeListPtrE
                0x000000000026d4f8                _ZN11xercesc_2_715DOMStringHandle12blockListPtrE
 .bss           0x000000000026d548        0x0 LINUX/depdom/DOM_Text.o
 .bss           0x000000000026d548        0x0 LINUX/depdom/DOM_TreeWalker.o
 .bss           0x000000000026d548        0x0 LINUX/depdom/DOM_XMLDecl.o
 .bss           0x000000000026d548        0x0 LINUX/depdom/DStringPool.o
 .bss           0x000000000026d548        0x0 LINUX/depdom/ElementDefinitionImpl.o
 *fill*         0x000000000026d548        0x8 00
 .bss           0x000000000026d550       0x20 LINUX/depdom/ElementImpl.o
 .bss           0x000000000026d570        0x0 LINUX/depdom/ElementNSImpl.o
 .bss           0x000000000026d570        0x0 LINUX/depdom/EntityImpl.o
 .bss           0x000000000026d570        0x0 LINUX/depdom/EntityReferenceImpl.o
 .bss           0x000000000026d570        0x8 LINUX/depdom/NamedNodeMapImpl.o
                0x000000000026d570                _ZN11xercesc_2_716NamedNodeMapImpl18gLiveNamedNodeMapsE
                0x000000000026d574                _ZN11xercesc_2_716NamedNodeMapImpl19gTotalNamedNodeMapsE
 .bss           0x000000000026d578        0x0 LINUX/depdom/NodeIDMap.o
 *fill*         0x000000000026d578        0x8 00
 .bss           0x000000000026d580       0x48 LINUX/depdom/NodeImpl.o
                0x000000000026d580                _ZN11xercesc_2_78NodeImpl14gLiveNodeImplsE
                0x000000000026d584                _ZN11xercesc_2_78NodeImpl15gTotalNodeImplsE
 .bss           0x000000000026d5c8        0x0 LINUX/depdom/NodeIteratorImpl.o
 .bss           0x000000000026d5c8        0x0 LINUX/depdom/NodeListImpl.o
 .bss           0x000000000026d5c8        0x0 LINUX/depdom/NodeVector.o
 .bss           0x000000000026d5c8        0x0 LINUX/depdom/NotationImpl.o
 .bss           0x000000000026d5c8        0x0 LINUX/depdom/ParentNode.o
 .bss           0x000000000026d5c8        0x0 LINUX/depdom/ProcessingInstructionImpl.o
 .bss           0x000000000026d5c8        0x0 LINUX/depdom/RangeImpl.o
 .bss           0x000000000026d5c8        0x0 LINUX/depdom/RefCountedImpl.o
 *fill*         0x000000000026d5c8        0x8 00
 .bss           0x000000000026d5d0       0x20 LINUX/depdom/TextImpl.o
 .bss           0x000000000026d5f0        0x0 LINUX/depdom/TreeWalkerImpl.o
 .bss           0x000000000026d5f0       0x20 LINUX/depdom/XMLDeclImpl.o
 .bss           0x000000000026d610        0x0 /usr/lib/gcc/x86_64-redhat-linux/4.4.7/crtendS.o
 .bss           0x000000000026d610        0x0 /usr/lib/gcc/x86_64-redhat-linux/4.4.7/../../../../lib64/crtn.o
 *(COMMON)
                0x000000000026d610                . = ALIGN ((. != 0x0)?0x8:0x1)

.lbss
 *(.dynlbss)
 *(.lbss .lbss.* .gnu.linkonce.lb.*)
 *(LARGE_COMMON)

.sharable_bss   0x0000000000400000        0x0
                0x0000000000400000                PROVIDE (__sharable_bss_start, .)
 *(.dynsharablebss)
 *(.sharable_bss .sharable_bss.* .gnu.linkonce.shrb.*)
 *(SHARABLE_COMMON)
                0x0000000000400000                . = ALIGN ((. != 0x0)?0x200000:0x1)
                0x0000000000400000                PROVIDE (__sharable_bss_end, .)
                0x0000000000400000                . = ALIGN (0x8)

.lrodata
 *(.lrodata .lrodata.* .gnu.linkonce.lr.*)

.ldata          0x000000000066d610        0x0
 *(.ldata .ldata.* .gnu.linkonce.l.*)
                0x000000000066d610                . = ALIGN ((. != 0x0)?0x8:0x1)
                0x000000000066d610                . = ALIGN (0x8)
                0x000000000066d610                _end = .
                0x000000000066d610                PROVIDE (end, .)
                0x000000000066d610                . = DATA_SEGMENT_END (.)

.stab
 *(.stab)

.stabstr
 *(.stabstr)

.stab.excl
 *(.stab.excl)

.stab.exclstr
 *(.stab.exclstr)

.stab.index
 *(.stab.index)

.stab.indexstr
 *(.stab.indexstr)

.comment        0x0000000000000000       0x2d
 *(.comment)
 .comment       0x0000000000000000       0x2d /usr/lib/gcc/x86_64-redhat-linux/4.4.7/../../../../lib64/crti.o
                                         0x2e (size before relaxing)
 .comment       0x0000000000000000       0x2e /usr/lib/gcc/x86_64-redhat-linux/4.4.7/crtbeginS.o
 .comment       0x0000000000000000       0x2e LINUX/depdom/AttrImpl.o
 .comment       0x0000000000000000       0x2e LINUX/depdom/AttrMapImpl.o
 .comment       0x0000000000000000       0x2e LINUX/depdom/AttrNSImpl.o
 .comment       0x0000000000000000       0x2e LINUX/depdom/CDATASectionImpl.o
 .comment       0x0000000000000000       0x2e LINUX/depdom/CharacterDataImpl.o
 .comment       0x0000000000000000       0x2e LINUX/depdom/ChildNode.o
 .comment       0x0000000000000000       0x2e LINUX/depdom/CommentImpl.o
 .comment       0x0000000000000000       0x2e LINUX/depdom/DeepNodeListImpl.o
 .comment       0x0000000000000000       0x2e LINUX/depdom/DocumentFragmentImpl.o
 .comment       0x0000000000000000       0x2e LINUX/depdom/DocumentImpl.o
 .comment       0x0000000000000000       0x2e LINUX/depdom/DocumentTypeImpl.o
 .comment       0x0000000000000000       0x2e LINUX/depdom/DOM_Attr.o
 .comment       0x0000000000000000       0x2e LINUX/depdom/DOM_CDATASection.o
 .comment       0x0000000000000000       0x2e LINUX/depdom/DOM_CharacterData.o
 .comment       0x0000000000000000       0x2e LINUX/depdom/DOM_Comment.o
 .comment       0x0000000000000000       0x2e LINUX/depdom/DOM_DocumentFragment.o
 .comment       0x0000000000000000       0x2e LINUX/depdom/DOM_Document.o
 .comment       0x0000000000000000       0x2e LINUX/depdom/DOM_DocumentType.o
 .comment       0x0000000000000000       0x2e LINUX/depdom/DOM_DOMException.o
 .comment       0x0000000000000000       0x2e LINUX/depdom/DOM_DOMImplementation.o
 .comment       0x0000000000000000       0x2e LINUX/depdom/DOM_Element.o
 .comment       0x0000000000000000       0x2e LINUX/depdom/DOM_Entity.o
 .comment       0x0000000000000000       0x2e LINUX/depdom/DOM_EntityReference.o
 .comment       0x0000000000000000       0x2e LINUX/depdom/DomMemDebug.o
 .comment       0x0000000000000000       0x2e LINUX/depdom/DOM_NamedNodeMap.o
 .comment       0x0000000000000000       0x2e LINUX/depdom/DOM_NodeFilter.o
 .comment       0x0000000000000000       0x2e LINUX/depdom/DOM_NodeIterator.o
 .comment       0x0000000000000000       0x2e LINUX/depdom/DOM_NodeList.o
 .comment       0x0000000000000000       0x2e LINUX/depdom/DOM_Node.o
 .comment       0x0000000000000000       0x2e LINUX/depdom/DOM_Notation.o
 .comment       0x0000000000000000       0x2e LINUX/depdom/DOMParser.o
 .comment       0x0000000000000000       0x2e LINUX/depdom/DOM_ProcessingInstruction.o
 .comment       0x0000000000000000       0x2e LINUX/depdom/DOM_RangeException.o
 .comment       0x0000000000000000       0x2e LINUX/depdom/DOM_Range.o
 .comment       0x0000000000000000       0x2e LINUX/depdom/DOMString.o
 .comment       0x0000000000000000       0x2e LINUX/depdom/DOM_Text.o
 .comment       0x0000000000000000       0x2e LINUX/depdom/DOM_TreeWalker.o
 .comment       0x0000000000000000       0x2e LINUX/depdom/DOM_XMLDecl.o
 .comment       0x0000000000000000       0x2e LINUX/depdom/DStringPool.o
 .comment       0x0000000000000000       0x2e LINUX/depdom/ElementDefinitionImpl.o
 .comment       0x0000000000000000       0x2e LINUX/depdom/ElementImpl.o
 .comment       0x0000000000000000       0x2e LINUX/depdom/ElementNSImpl.o
 .comment       0x0000000000000000       0x2e LINUX/depdom/EntityImpl.o
 .comment       0x0000000000000000       0x2e LINUX/depdom/EntityReferenceImpl.o
 .comment       0x0000000000000000       0x2e LINUX/depdom/NamedNodeMapImpl.o
 .comment       0x0000000000000000       0x2e LINUX/depdom/NodeIDMap.o
 .comment       0x0000000000000000       0x2e LINUX/depdom/NodeImpl.o
 .comment       0x0000000000000000       0x2e LINUX/depdom/NodeIteratorImpl.o
 .comment       0x0000000000000000       0x2e LINUX/depdom/NodeListImpl.o
 .comment       0x0000000000000000       0x2e LINUX/depdom/NodeVector.o
 .comment       0x0000000000000000       0x2e LINUX/depdom/NotationImpl.o
 .comment       0x0000000000000000       0x2e LINUX/depdom/ParentNode.o
 .comment       0x0000000000000000       0x2e LINUX/depdom/ProcessingInstructionImpl.o
 .comment       0x0000000000000000       0x2e LINUX/depdom/RangeImpl.o
 .comment       0x0000000000000000       0x2e LINUX/depdom/RefCountedImpl.o
 .comment       0x0000000000000000       0x2e LINUX/depdom/TextImpl.o
 .comment       0x0000000000000000       0x2e LINUX/depdom/TreeWalkerImpl.o
 .comment       0x0000000000000000       0x2e LINUX/depdom/XMLDeclImpl.o
 .comment       0x0000000000000000       0x2e /usr/lib/gcc/x86_64-redhat-linux/4.4.7/crtendS.o
 .comment       0x0000000000000000       0x2e /usr/lib/gcc/x86_64-redhat-linux/4.4.7/../../../../lib64/crtn.o

.debug
 *(.debug)

.line
 *(.line)

.debug_srcinfo
 *(.debug_srcinfo)

.debug_sfnames
 *(.debug_sfnames)

.debug_aranges
 *(.debug_aranges)

.debug_pubnames
 *(.debug_pubnames)

.debug_info
 *(.debug_info .gnu.linkonce.wi.*)

.debug_abbrev
 *(.debug_abbrev)

.debug_line
 *(.debug_line)

.debug_frame
 *(.debug_frame)

.debug_str
 *(.debug_str)

.debug_loc
 *(.debug_loc)

.debug_macinfo
 *(.debug_macinfo)

.debug_weaknames
 *(.debug_weaknames)

.debug_funcnames
 *(.debug_funcnames)

.debug_typenames
 *(.debug_typenames)

.debug_varnames
 *(.debug_varnames)

.debug_pubtypes
 *(.debug_pubtypes)

.debug_ranges
 *(.debug_ranges)

.gnu.attributes
 *(.gnu.attributes)

/DISCARD/
 *(.note.GNU-stack)
 *(.gnu_debuglink)
 *(.gnu.lto_*)
OUTPUT(/root/CineCast/public/xerces-c/src/xerces-c-src_2_7_0//lib/libxerces-depdom.so.27.0 elf64-x86-64)
